(dp0
S'00-0026345'
p1
(S'P.Garcon'
p2
S'WR'
p3
S'SF'
p4
(lp5
F8.1
aF2.6
aF14.200000000000001
aF3.6
aF9.4
aF5.5
aF4.9
aF1.7000000000000002
aI0
aI0
aI0
aI0
aI0
aI0
aI0
aI0
atp6
sS'00-0026498'
p7
(S'M.Stafford'
p8
S'QB'
p9
S'DET'
p10
(lp11
F35.08
aF17.18
aF18.46
aF10.059999999999999
aF19.16
aF20.880000000000003
aI0
aF18.020000000000003
aF26.439999999999998
aF27.66
aF22.26
aF18.0
aF13.879999999999999
aF17.240000000000002
aF21.380000000000003
aF12.82
atp12
sS'00-0026224'
p13
(S'H.Douglas'
p14
S'WR'
p15
S'TEN'
p16
(lp17
I0
aI0
aI0
aI0
aI0
aI0
aI0
aI0
aI0
aI0
aI0
aF0.8
aI0
aI0
aI0
aI0
atp18
sS'00-0033787'
p19
(S'J.Elliott'
p20
S'K'
p21
S'PHI'
p22
(lp23
I0
aI8
aI11
aI16
aI10
aI10
aI12
aI9
aI9
aI0
aI1
aI7
aI4
aI13
aI10
aI7
atp24
sS'00-0027691'
p25
(S'A.Roberts'
p26
S'WR'
p27
S'ATL'
p28
(lp29
F3.5000000000000004
aF3.1
aF10.400000000000002
aF9.3
aI0
aF3.4000000000000004
aF8.200000000000001
aF5.5
aF1.3
aF2.6
aF8.700000000000001
aF15.5
aF5.3
aF6.500000000000001
aF12.5
aF7.4
atp30
sS'00-0027690'
p31
(S'E.Decker'
p32
S'WR'
p33
S'TEN'
p34
(lp35
F1.0
aF5.4
aF4.9
aF1.3
aF3.4000000000000004
aF8.8
aI0
aI0
aF8.1
aF1.9000000000000001
aF3.7
aF2.3000000000000003
aF2.7
aF5.6000000000000005
aF6.300000000000001
aF7.300000000000001
atp36
sS'00-0027696'
p37
(S'J.Graham'
p38
S'TE'
p39
S'SEA'
p40
(lp41
F0.8
aF0.1
aF7.2
aF6.1000000000000005
aF9.7
aI0
aF11.100000000000001
aF15.9
aF5.9
aF14.7
aF13.8
aF9.4
aF8.6
aI0
aF-0.1
aF6.3
atp42
sS'00-0031533'
p43
(S'R.Telfer'
p44
S'TE'
p45
S'CLE'
p46
(lp47
I0
aF2.0
aF0.4
aI0
aI0
aI0
aI0
aI0
aI0
aI0
aI0
aI0
aI0
aF1.2000000000000002
aI0
aI0
atp48
sS'00-0029878'
p49
(S'M.Gray'
p50
S'TE'
p51
S'MIA'
p52
(lp53
I0
aI0
aI0
aI0
aF0.0
aI0
aI0
aI0
aF0.30000000000000004
aI0
aI0
aI0
aI0
aF1.2
aF0.7000000000000001
aI0
atp54
sS'00-0023500'
p55
(S'F.Gore'
p56
S'RB'
p57
S'IND'
p58
(lp59
F5.2
aF10.600000000000001
aF11.7
aF8.0
aF8.600000000000001
aF6.7
aF3.4000000000000004
aF10.100000000000001
aF7.700000000000001
aF6.1000000000000005
aI0
aF13.899999999999999
aF6.1000000000000005
aF14.0
aF6.800000000000001
aF14.600000000000001
atp60
sS'00-0029848'
p61
(S'N.Williams'
p62
S'WR'
p63
S'ATL'
p64
(lp65
I0
aI0
aI0
aF3.0
aI0
aI0
aI0
aI0
aI0
aI0
aI0
aI0
aI0
aI0
aI0
aI0
atp66
sS'00-0032377'
p67
(S'J.Ferguson'
p68
S'RB'
p69
S'IND'
p70
(lp71
I0
aI0
aI0
aI0
aI0
aI0
aF0.5
aI0
aI0
aI0
aI0
aI0
aF6.800000000000001
aF3.4000000000000004
aI0
aI0
atp72
sS'00-0028263'
p73
(S'A.Holmes'
p74
S'WR'
p75
S'BUF'
p76
(lp77
F6.1
aF1.8
aF6.6
aF1.0
aI0
aI0
aF1.1
aF11.100000000000001
aF1.6
aI0
aF0.7000000000000001
aI0
aI0
aI0
aI0
aI0
atp78
sS'00-0027321'
p79
(S'J.Cumberland'
p80
S'TE'
p81
S'LAC'
p82
(lp83
I0
aI0
aI0
aI0
aI0
aI0
aI0
aI0
aI0
aI0
aF0.2
aI0
aI0
aF0.0
aI0
aI0
atp84
sS'00-0027325'
p85
(S'L.Blount'
p86
S'RB'
p87
S'PHI'
p88
(lp89
F10.700000000000001
aF0.0
aF12.7
aF15.600000000000001
aF7.4
aF8.7
aF2.9000000000000004
aF11.200000000000001
aF3.7
aI0
aF5.7
aF7.700000000000001
aF2.6
aF2.3000000000000003
aF2.1
aF1.5000000000000002
atp90
sS'00-0023645'
p91
(S'D.Anderson'
p92
S'QB'
p93
S'CAR'
p94
(lp95
I0
aI0
aF0.68
aI0
aI0
aI0
aI0
aI0
aI0
aF-0.2
aI0
aI0
aI0
aI0
aI0
aF0.0
atp96
sS'00-0033855'
p97
(S'C.Thompson'
p98
S'WR'
p99
S'HOU'
p100
(lp101
I0
aI0
aI0
aF4.2
aF7.000000000000001
aF5.6000000000000005
aI0
aF7.6000000000000005
aI0
aI0
aF2.0
aF4.7
aF7.4
aI0
aF2.5
aI0
atp102
sS'00-0027994'
p103
(S'S.Vereen'
p104
S'RB'
p105
S'NYG'
p106
(lp107
F5.1000000000000005
aF5.5
aF2.3
aF2.5
aF6.5
aF0.4
aF2.4000000000000004
aI0
aF6.500000000000001
aF6.200000000000001
aF0.7999999999999998
aF6.6000000000000005
aF1.0
aF6.700000000000001
aF3.0
aF2.4000000000000004
atp108
sS'00-0027996'
p109
(S'T.Smith'
p110
S'WR'
p111
S'PHI'
p112
(lp113
F3.0
aF6.6000000000000005
aF3.8000000000000003
aF0.9
aF12.7
aF0.6000000000000001
aI0
aI0
aF1.1
aI0
aF8.8
aF3.0
aF2.9000000000000004
aF10.0
aF1.7000000000000002
aF0.5
atp114
sS'00-0023662'
p115
(S'M.Cassel'
p116
S'QB'
p117
S'TEN'
p118
(lp119
I0
aI0
aI0
aF-5.16
aF9.64
aI0
aI0
aI0
aI0
aI0
aI0
aI0
aI0
aI0
aI0
aI0
atp120
sS'00-0028091'
p121
(S'J.Kerley'
p122
S'WR'
p123
S'NYJ'
p124
(lp125
I0
aF1.4000000000000001
aF7.300000000000001
aF4.4
aF5.5
aF11.9
aF2.1000000000000005
aF-0.6999999999999998
aF0.30000000000000004
aI0
aI0
aI0
aI0
aI0
aI0
aI0
atp126
sS'00-0028907'
p127
(S'G.Tavecchio'
p128
S'K'
p129
S'OAK'
p130
(lp131
I18
aI9
aI4
aI4
aI5
aI4
aI7
aI2
aI11
aI0
aI0
aI3
aI6
aI1
aI5
aI4
atp132
sS'00-0029638'
p133
(S'M.Floyd'
p134
S'WR'
p135
S'MIN'
p136
(lp137
I0
aI0
aI0
aI0
aF1.9000000000000001
aF0.5
aI0
aF0.7000000000000001
aI0
aI0
aF1.6
aF0.8
aF2.0
aF0.30000000000000004
aI0
aF0.0
atp138
sS'00-0028903'
p139
(S'G.Celek'
p140
S'TE'
p141
S'SF'
p142
(lp143
I0
aF0.6000000000000001
aF6.1
aI0
aF0.6000000000000001
aF1.3
aF1.1
aF2.4000000000000004
aF1.3
aF12.7
aI0
aF0.7000000000000001
aF3.0
aF12.7
aF12.3
aI0
atp144
sS'00-0031075'
p145
(S'A.Blue'
p146
S'RB'
p147
S'HOU'
p148
(lp149
I0
aI0
aI0
aF1.2000000000000002
aI0
aI0
aI0
aF2.1
aI0
aF1.0
aI0
aF2.6
aF0.9000000000000001
aI0
aF5.5
aF10.8
atp150
sS'00-0031076'
p151
(S'D.Fales'
p152
S'QB'
p153
S'MIA'
p154
(lp155
I0
aI0
aI0
aI0
aI0
aI0
aI0
aI0
aI0
aI0
aI0
aI0
aF0.0
aI0
aI0
aI0
atp156
sS'00-0033916'
p157
(S'A.Stewart'
p158
S'WR'
p159
S'NYJ'
p160
(lp161
F1.0
aI0
aF2.4000000000000004
aF3.2
aF2.6000000000000005
aF6.1000000000000005
aF3.0
aI0
aF4.4
aF0.4
aI0
aI0
aF0.5
aI0
aI0
aI0
atp162
sS'00-0033911'
p163
(S'T.Taylor'
p164
S'WR'
p165
S'TEN'
p166
(lp167
F1.4000000000000001
aF5.800000000000001
aF1.5
aF0.6000000000000001
aF0.5
aF12.100000000000001
aF4.5
aI0
aF-0.4
aF3.8000000000000003
aI0
aF0.8
aF1.5
aI0
aF0.8
aI0
atp168
sS'00-0033859'
p169
(S'J.Malone'
p170
S'WR'
p171
S'CIN'
p172
(lp173
I0
aI0
aI0
aI0
aI0
aI0
aI0
aF9.5
aF1.3
aF0.6000000000000001
aI0
aI0
aF0.9
aI0
aF0.4
aF-0.2
atp174
sS'00-0032144'
p175
(S'M.Gordon'
p176
S'RB'
p177
S'LAC'
p178
(lp179
F13.9
aF13.8
aF13.9
aF2.9000000000000004
aF28.3
aF27.0
aF4.4
aF19.900000000000002
aI0
aF4.2
aF14.0
aF8.8
aF10.600000000000001
aF14.3
aF22.9
aF18.8
atp180
sS'00-0033856'
p181
(S'L.Fournette'
p182
S'RB'
p183
S'JAX'
p184
(lp185
F18.4
aF12.1
aF17.0
aF20.5
aF30.400000000000002
aF19.8
aI0
aI0
aI0
aF4.6000000000000005
aF11.8
aF4.2
aF13.899999999999999
aF17.900000000000002
aI0
aF13.0
atp186
sS'00-0033857'
p187
(S'J.Smith-Schuster'
p188
S'WR'
p189
S'PIT'
p190
(lp191
F0.4
aF9.6
aF3.9000000000000004
aF10.7
aF6.700000000000001
aF4.300000000000001
aF9.9
aF25.3
aI0
aF18.200000000000003
aF4.7
aI0
aF1.7000000000000002
aI0
aF16.3
aF13.5
atp192
sS'00-0032141'
p193
(S'G.Swaim'
p194
S'TE'
p195
S'DAL'
p196
(lp197
I0
aI0
aI0
aI0
aI0
aI0
aF0.7000000000000001
aF1.8
aI0
aI0
aI0
aI0
aI0
aI0
aI0
aI0
atp198
sS'00-0031743'
p199
(S'A.Hunt'
p200
S'RB'
p201
S'KC'
p202
(lp203
I0
aF4.0
aF6.6000000000000005
aF2.5
aF4.9
aF4.9
aF1.8000000000000003
aF4.7
aF5.1000000000000005
aI0
aF5.2
aF2.8000000000000003
aF6.0
aI0
aF7.5
aF7.6000000000000005
atp204
sS'00-0031588'
p205
(S'S.Diggs'
p206
S'WR'
p207
S'MIN'
p208
(lp209
F20.700000000000003
aF3.1
aF29.3
aF9.8
aF0.4
aI0
aI0
aF2.6
aI0
aF13.8
aF3.2
aF7.500000000000001
aF3.7
aF6.4
aF9.7
aF12.3
atp210
sS'00-0031589'
p211
(S'B.Hundley'
p212
S'QB'
p213
S'GB'
p214
(lp215
I0
aI0
aI0
aF0.0
aI0
aF6.58
aF11.88
aI0
aF18.0
aF16.08
aF3.460000000000001
aF28.4
aF7.960000000000001
aF31.7
aI0
aF6.0
atp216
sS'00-0032661'
p217
(S'B.Braunecker'
p218
S'TE'
p219
S'CHI'
p220
(lp221
I0
aI0
aI0
aI0
aI0
aI0
aI0
aI0
aI0
aI0
aI0
aI0
aI0
aI0
aI0
aI0
atp222
sS'00-0033719'
p223
(S'S.Smith'
p224
S'RB'
p225
S'NYG'
p226
(lp227
I0
aI0
aI0
aI0
aI0
aI0
aI0
aI0
aI0
aI0
aI0
aI0
aI0
aI0
aI0
aI0
atp228
sS'00-0033717'
p229
(S'T.Rudolph'
p230
S'WR'
p231
S'NYG'
p232
(lp233
I0
aI0
aI0
aI0
aI0
aI0
aF3.2
aI0
aI0
aI0
aF3.4000000000000004
aI0
aI0
aI0
aI0
aF0.6000000000000001
atp234
sS'00-0032784'
p235
(S'K.Hogan'
p236
S'QB'
p237
S'CLE'
p238
(lp239
I0
aF9.219999999999999
aI0
aF2.6
aF20.759999999999998
aF9.200000000000001
aI0
aI0
aI0
aI0
aI0
aI0
aI0
aI0
aI0
aI0
atp240
sS'00-0032782'
p241
(S'W.Smallwood'
p242
S'RB'
p243
S'PHI'
p244
(lp245
F0.9
aF5.6000000000000005
aF11.8
aF13.9
aI0
aI0
aF3.9000000000000004
aF1.4
aF2.5
aI0
aI0
aI0
aI0
aI0
aI0
aI0
atp246
sS'00-0032780'
p247
(S'Jo.Howard'
p248
S'RB'
p249
S'CHI'
p250
(lp251
F12.6
aF0.7000000000000001
aF26.400000000000002
aF12.3
aF7.6000000000000005
aF17.599999999999998
aF6.5
aF12.100000000000001
aI0
aF5.4
aF18.5
aF1.9000000000000001
aF3.3000000000000003
aF27.500000000000004
aF6.300000000000001
aF16.4
atp252
sS'00-0027215'
p253
(S'L.Paulsen'
p254
S'TE'
p255
S'SF'
p256
(lp257
I0
aI0
aI0
aI0
aI0
aI0
aI0
aI0
aI0
aI0
aI0
aI0
aI0
aI0
aI0
aI0
atp258
sS'00-0029336'
p259
(S'B.Golden'
p260
S'WR'
p261
S'ARI'
p262
(lp263
I0
aF2.9000000000000004
aF2.1
aI0
aI0
aI0
aF2.0
aI0
aI0
aI0
aF2.6
aI0
aF3.3000000000000003
aF2.0
aF6.5
aI0
atp264
sS'00-0031387'
p265
(S'E.Ebron'
p266
S'TE'
p267
S'DET'
p268
(lp269
F0.9
aF10.2
aF0.9
aF2.7
aF0.6000000000000001
aF0.9
aI0
aF5.800000000000001
aF3.5
aF9.9
aF4.9
aF3.4000000000000004
aF3.8000000000000003
aF7.4
aF9.3
aF14.3
atp270
sS'00-0031384'
p271
(S'R.Rodgers'
p272
S'TE'
p273
S'GB'
p274
(lp275
I0
aF2.2
aI0
aI0
aF1.6
aI0
aI0
aI0
aF0.5
aF0.8
aF0.30000000000000004
aF2.5
aF0.4
aI0
aF13.7
aI0
atp276
sS'00-0031382'
p277
(S'J.Landry'
p278
S'WR'
p279
S'MIA'
p280
(lp281
I0
aF7.1000000000000005
aF4.800000000000001
aF4.9
aF13.200000000000001
aF12.2
aF16.9
aF3.7
aF9.2
aF10.2
aI0
aF7.0
aF5.7
aF17.5
aF9.9
aF3.1000000000000005
atp282
sS'00-0031381'
p283
(S'D.Adams'
p284
S'WR'
p285
S'GB'
p286
(lp287
F4.7
aF15.9
aF6.0
aF7.3
aF18.6
aF11.4
aF1.2000000000000002
aI0
aF5.300000000000001
aF15.0
aF12.600000000000001
aF14.200000000000001
aF4.2
aF20.4
aF11.7
aI0
atp288
sS'00-0030460'
p289
(S'M.Wheaton'
p290
S'WR'
p291
S'CHI'
p292
(lp293
I0
aI0
aI0
aI0
aF0.4
aI0
aI0
aI0
aI0
aI0
aI0
aI0
aI0
aI0
aF4.2
aI0
atp294
sS'00-0030465'
p295
(S'K.Barner'
p296
S'RB'
p297
S'PHI'
p298
(lp299
I0
aI0
aI0
aF1.5
aF13.3
aF1.6
aF4.800000000000001
aF2.5
aF5.5
aI0
aF10.8
aF1.7000000000000002
aF4.3
aF1.1
aF7.700000000000001
aF1.8
atp300
sS'00-0033357'
p301
(S'T.Hill'
p302
S'QB'
p303
S'NO'
p304
(lp305
I0
aI0
aI0
aI0
aI0
aI0
aI0
aI0
aI0
aI0
aI0
aI0
aI0
aI0
aI0
aI0
atp306
sS'00-0033303'
p307
(S'H.Butker'
p308
S'K'
p309
S'KC'
p310
(lp311
I0
aI0
aI0
aI11
aI18
aI7
aI14
aI19
aI5
aI0
aI9
aI4
aI7
aI16
aI14
aI17
atp312
sS'00-0030506'
p313
(S'T.Kelce'
p314
S'TE'
p315
S'KC'
p316
(lp317
F4.4
aF16.3
aF0.1
aF17.400000000000002
aF9.8
aF3.7
aF9.3
aF19.3
aF13.3
aI0
aF8.9
aF3.9000000000000004
aF21.4
aF7.4
aF4.6000000000000005
aF10.7
atp318
sS'00-0030663'
p319
(S'W.Snead'
p320
S'WR'
p321
S'NO'
p322
(lp323
I0
aI0
aI0
aI0
aI0
aF1.1
aI0
aI0
aF-2.0
aI0
aF3.0
aF0.9
aF3.1
aF0.0
aF2.3000000000000003
aF0.6000000000000001
atp324
sS'00-0026968'
p325
(S'R.Succop'
p326
S'K'
p327
S'TEN'
p328
(lp329
I12
aI13
aI15
aI2
aI4
aI18
aI12
aI0
aI5
aI6
aI5
aI8
aI6
aI1
aI13
aI11
atp330
sS'00-0030669'
p331
(S'A.Wilson'
p332
S'WR'
p333
S'KC'
p334
(lp335
F3.7
aF2.6
aF7.3999999999999995
aF6.9
aF1.8
aI0
aF12.3
aI0
aI0
aI0
aI0
aF9.6
aF2.7
aF7.2
aF1.5
aF3.6
atp336
sS'00-0028702'
p337
(S'C.Matthews'
p338
S'WR'
p339
S'BAL'
p340
(lp341
I0
aI0
aF0.8
aF1.2000000000000002
aI0
aF0.5
aI0
aI0
aI0
aI0
aI0
aI0
aI0
aI0
aI0
aI0
atp342
sS'00-0033567'
p343
(S'B.Hill'
p344
S'RB'
p345
S'CIN'
p346
(lp347
I0
aI0
aI0
aI0
aI0
aI0
aI0
aI0
aI0
aI0
aI0
aI0
aI0
aF1.0
aF1.2000000000000002
aF5.1000000000000005
atp348
sS'00-0027061'
p349
(S'J.Cook'
p350
S'TE'
p351
S'OAK'
p352
(lp353
F5.6000000000000005
aF2.5
aF10.3
aF4.6000000000000005
aF0.5
aF1.4000000000000001
aF10.700000000000001
aF5.7
aF12.600000000000001
aI0
aF3.6
aF0.1
aF0.9
aF13.5
aF1.7000000000000002
aF1.5
atp354
sS'00-0033760'
p355
(S'J.Davis'
p356
S'RB'
p357
S'LA'
p358
(lp359
F0.1
aI0
aI0
aI0
aI0
aI0
aI0
aI0
aI0
aI0
aI0
aI0
aI0
aI0
aI0
aI0
atp360
sS'00-0031697'
p361
(S'J.Taylor'
p362
S'WR'
p363
S'DEN'
p364
(lp365
I0
aI0
aI0
aI0
aI0
aF2.6
aF0.7000000000000001
aF0.8
aI0
aI0
aF2.9000000000000004
aF0.8
aI0
aF6.2
aF0.0
aF3.4000000000000004
atp366
sS'00-0031690'
p367
(S'E.Tomlinson'
p368
S'TE'
p369
S'NYJ'
p370
(lp371
F2.5
aI0
aI0
aI0
aF3.4000000000000004
aI0
aF2.6
aF8.0
aF0.6000000000000001
aI0
aI0
aI0
aI0
aI0
aI0
aI0
atp372
sS'00-0030521'
p373
(S'J.Hunter'
p374
S'WR'
p375
S'PIT'
p376
(lp377
I0
aI0
aI0
aF0.5
aF0.6000000000000001
aI0
aI0
aF0.7000000000000001
aI0
aI0
aI0
aI0
aI0
aI0
aI0
aF6.5
atp378
sS'00-0025708'
p379
(S'M.Moore'
p380
S'QB'
p381
S'MIA'
p382
(lp383
I0
aI0
aI0
aI0
aI0
aI0
aF17.52
aF3.04
aI0
aI0
aI0
aF11.5
aI0
aI0
aI0
aI0
atp384
sS'00-0029159'
p385
(S'J.Kearse'
p386
S'WR'
p387
S'NYJ'
p388
(lp389
F5.9
aF18.4
aF4.2
aF1.7000000000000002
aF9.8
aF7.9
aF8.9
aF1.4000000000000001
aF3.8000000000000003
aF3.5
aI0
aF16.5
aF15.700000000000001
aF0.4
aF2.8000000000000003
aF4.2
atp390
sS'00-0031492'
p391
(S'J.Myers'
p392
S'K'
p393
S'JAX'
p394
(lp395
I11
aI4
aI14
aI8
aI6
aI5
aI0
aI0
aI0
aI0
aI0
aI0
aI0
aI0
aI0
aI0
atp396
sS'00-0027966'
p397
(S'M.Ingram'
p398
S'RB'
p399
S'NO'
p400
(lp401
F7.1000000000000005
aF7.6000000000000005
aF8.600000000000001
aF6.2
aI0
aF25.0
aF17.0
aF11.9
aF7.9
aF31.1
aF21.5
aF3.6
aF18.2
aF9.2
aF27.099999999999998
aF12.600000000000001
atp402
sS'00-0031315'
p403
(S'M.Hazel'
p404
S'WR'
p405
S'IND'
p406
(lp407
F0.1
aI0
aI0
aI0
aI0
aI0
aI0
aI0
aI0
aI0
aI0
aI0
aI0
aI0
aI0
aI0
atp408
sS'00-0023682'
p409
(S'R.Fitzpatrick'
p410
S'QB'
p411
S'TB'
p412
(lp413
I0
aF-0.2
aI0
aI0
aI0
aF26.6
aI0
aI0
aF11.72
aF12.38
aI0
aF13.32
aI0
aI0
aI0
aI0
atp414
sS'00-0031257'
p415
(S'P.Richardson'
p416
S'WR'
p417
S'SEA'
p418
(lp419
F5.9
aF7.9
aF9.0
aF6.5
aF3.5
aI0
aF12.100000000000001
aF22.5
aF4.1000000000000005
aF4.3
aF5.6000000000000005
aF7.0
aF0.8
aF13.2
aF1.8
aF2.1
atp420
sS'00-0029239'
p421
(S'B.Bolden'
p422
S'RB'
p423
S'NE'
p424
(lp425
I0
aI0
aI0
aI0
aI0
aI0
aI0
aI0
aI0
aF0.1
aI0
aI0
aI0
aI0
aI0
aF2.0
atp426
sS'00-0030860'
p427
(S'O.Darkwa'
p428
S'RB'
p429
S'NYG'
p430
(lp431
F1.3
aF2.0
aF3.3000000000000003
aI0
aF13.200000000000001
aF13.000000000000002
aF4.8
aI0
aF7.9
aF10.8
aF15.0
aF3.9
aF9.1
aF4.4
aF7.6000000000000005
aF1.0
atp432
sS'00-0025418'
p433
(S'G.Olsen'
p434
S'TE'
p435
S'CAR'
p436
(lp437
F1.8
aF1.0
aI0
aI0
aI0
aI0
aI0
aI0
aI0
aI0
aI0
aF1.0
aI0
aI0
aF17.6
aF2.7
atp438
sS'00-0026144'
p439
(S'D.McFadden'
p440
S'RB'
p441
S'DAL'
p442
(lp443
I0
aI0
aI0
aI0
aI0
aI0
aI0
aI0
aI0
aF-0.2
aI0
aI0
aI0
aI0
aI0
aI0
atp444
sS'00-0031834'
p445
(S'L.Pinkard'
p446
S'WR'
p447
S'JAX'
p448
(lp449
I0
aI0
aI0
aI0
aI0
aI0
aI0
aI0
aI0
aI0
aI0
aI0
aI0
aF0.5
aI0
aI0
atp450
sS'00-0024268'
p451
(S'A.Fasano'
p452
S'TE'
p453
S'MIA'
p454
(lp455
I0
aI0
aI0
aI0
aI0
aI0
aF8.5
aF1.1
aF0.9
aI0
aI0
aI0
aF2.9000000000000004
aF1.7000000000000002
aF1.5
aI0
atp456
sS'00-0026143'
p457
(S'M.Ryan'
p458
S'QB'
p459
S'ATL'
p460
(lp461
F19.939999999999998
aF16.880000000000003
aF17.66
aF10.48
aI0
aF13.92
aF19.02
aF19.86
aF22.42
aF18.6
aF21.0
aF18.78
aF7.02
aF8.84
aF17.380000000000003
aF16.22
atp462
sS'00-0033662'
p463
(S'C.Rush'
p464
S'QB'
p465
S'DAL'
p466
(lp467
I0
aI0
aI0
aI0
aI0
aI0
aF1.3800000000000001
aI0
aI0
aI0
aF0.0
aI0
aI0
aI0
aI0
aI0
atp468
sS'00-0033108'
p469
(S'P.Lynch'
p470
S'QB'
p471
S'DEN'
p472
(lp473
I0
aI0
aI0
aI0
aI0
aI0
aI0
aI0
aI0
aI0
aI0
aF1.6400000000000001
aI0
aI0
aI0
aI0
atp474
sS'00-0033106'
p475
(S'J.Goff'
p476
S'QB'
p477
S'LA'
p478
(lp479
F18.439999999999998
aF13.06
aF29.58
aF22.1
aF7.719999999999999
aF11.86
aF20.7
aI0
aF36.44
aF32.5
aF9.8
aF23.86
aF19.0
aF18.16
aF14.8
aF33.44
atp480
sS'00-0030035'
p481
(S'A.Thielen'
p482
S'WR'
p483
S'MIN'
p484
(lp485
F15.700000000000001
aF2.4000000000000004
aF9.8
aF3.9000000000000004
aF4.5
aF9.700000000000001
aF4.1000000000000005
aF15.8
aI0
aF22.6
aF18.3
aF8.9
aF5.1000000000000005
aF16.5
aF3.0
aF2.4000000000000004
atp486
sS'00-0027793'
p487
(S'A.Brown'
p488
S'WR'
p489
S'PIT'
p490
(lp491
F18.2
aF6.2
aF17.0
aF4.9
aF15.700000000000001
aF21.5
aF13.2
aF7.0
aI0
aF5.4
aF34.7
aF31.800000000000004
aF16.1
aF21.3
aF2.4000000000000004
aI0
atp492
sS'00-0031408'
p493
(S'M.Evans'
p494
S'WR'
p495
S'TB'
p496
(lp497
I0
aF15.3
aF6.7
aF12.7
aF4.9
aF15.5
aF14.8
aF6.0
aF1.3
aI0
aI0
aF7.800000000000001
aF3.3000000000000003
aF2.5
aF13.9
aF10.700000000000001
atp498
sS'00-0033069'
p499
(S'B.Miller'
p500
S'WR'
p501
S'HOU'
p502
(lp503
I0
aF1.0
aF1.5
aI0
aI0
aF5.5
aI0
aI0
aI0
aF0.1
aF1.4000000000000001
aF4.3
aF7.9
aI0
aI0
aF1.2000000000000002
atp504
sS'00-0026544'
p505
(S'C.Daniel'
p506
S'QB'
p507
S'NO'
p508
(lp509
I0
aI0
aI0
aI0
aI0
aI0
aI0
aI0
aI0
aF-0.2
aI0
aI0
aI0
aI0
aI0
aI0
atp510
sS'00-0031407'
p511
(S'B.Bortles'
p512
S'QB'
p513
S'JAX'
p514
(lp515
F12.3
aF11.82
aF35.56
aF13.4
aF2.7
aF15.54
aF18.3
aI0
aF18.36
aF18.32
aF10.56
aF22.599999999999998
aF29.06
aF22.62
aF31.04
aF26.380000000000003
atp516
sS'00-0032211'
p517
(S'T.Lockett'
p518
S'WR'
p519
S'SEA'
p520
(lp521
F10.6
aF11.0
aF6.2
aF10.7
aF4.300000000000001
aI0
aF12.4
aF16.1
aF8.8
aF9.1
aF23.400000000000002
aF3.5000000000000004
aF12.600000000000001
aF25.0
aF14.400000000000002
aF1.8000000000000003
atp522
sS'00-0032214'
p523
(S'T.Kroft'
p524
S'TE'
p525
S'CIN'
p526
(lp527
F0.5
aI0
aF2.8000000000000003
aF18.8
aF3.8000000000000003
aI0
aF8.3
aF4.6000000000000005
aF7.9
aF0.4
aF7.2
aF7.4
aF3.0
aI0
aF0.1
aF0.30000000000000004
atp528
sS'00-0030485'
p529
(S'E.Lacy'
p530
S'RB'
p531
S'SEA'
p532
(lp533
F0.30000000000000004
aI0
aI0
aF5.2
aF2.8000000000000003
aI0
aF4.300000000000001
aF0.0
aF3.4000000000000004
aI0
aF0.2
aF6.1000000000000005
aF0.30000000000000004
aI0
aI0
aI0
atp534
sS'00-0032813'
p535
(S'E.Penny'
p536
S'RB'
p537
S'ARI'
p538
(lp539
I0
aI0
aI0
aF0.1
aF0.6000000000000001
aI0
aI0
aI0
aI0
aI0
aI0
aI0
aF6.4
aF2.9000000000000004
aF4.5
aF3.8000000000000007
atp540
sS'00-0028411'
p541
(S'D.Inman'
p542
S'WR'
p543
S'LAC'
p544
(lp545
I0
aI0
aF0.2
aF0.7000000000000001
aI0
aI0
aI0
aI0
aI0
aF8.8
aF4.3
aF6.4
aF8.1
aI0
aF0.5
aF1.9000000000000001
atp546
sS'00-0028825'
p547
(S'T.Pryor'
p548
S'WR'
p549
S'WAS'
p550
(lp551
F6.6000000000000005
aF3.1
aF1.9000000000000001
aF13.0
aI0
aF2.3000000000000003
aF1.4000000000000001
aI0
aF1.7000000000000002
aI0
aI0
aI0
aI0
aI0
aI0
aI0
atp552
sS'00-0028090'
p553
(S'T.Yates'
p554
S'QB'
p555
S'HOU'
p556
(lp557
I0
aI0
aI0
aI0
aI0
aI0
aI0
aI0
aI0
aI0
aI0
aI0
aI0
aF22.1
aF9.120000000000001
aF6.42
atp558
sS'00-0032626'
p559
(S'G.Allison'
p560
S'WR'
p561
S'GB'
p562
(lp563
I0
aF2.4000000000000004
aF12.200000000000001
aI0
aI0
aF0.7000000000000001
aF1.4000000000000001
aI0
aI0
aI0
aF0.0
aI0
aI0
aF2.9000000000000004
aF1.3000000000000003
aF0.9
atp564
sS'00-0031665'
p565
(S'Z.Zenner'
p566
S'RB'
p567
S'DET'
p568
(lp569
I0
aI0
aF0.5
aF0.0
aF7.1
aF2.0
aI0
aI0
aI0
aI0
aI0
aF0.6000000000000001
aF4.6000000000000005
aF0.0
aI0
aI0
atp570
sS'00-0032741'
p571
(S'P.Barber'
p572
S'RB'
p573
S'TB'
p574
(lp575
I0
aF4.7
aI0
aF0.2
aI0
aI0
aI0
aI0
aF5.4
aF-0.2
aI0
aF12.7
aF14.3
aF6.300000000000001
aF4.800000000000001
aF5.500000000000001
atp576
sS'00-0032745'
p577
(S'A.Cross'
p578
S'TE'
p579
S'TB'
p580
(lp581
I0
aF0.6000000000000001
aF0.5
aI0
aI0
aI0
aI0
aI0
aI0
aI0
aI0
aI0
aF1.3
aI0
aF2.3000000000000003
aI0
atp582
sS'00-0031544'
p583
(S'A.Cooper'
p584
S'WR'
p585
S'OAK'
p586
(lp587
F12.2
aF3.3000000000000003
aF0.6000000000000001
aF0.9
aF0.8
aF2.8000000000000003
aF33.0
aF5.200000000000001
aF5.800000000000001
aI0
aF8.8
aF6.9
aI0
aI0
aI0
aF12.600000000000001
atp588
sS'00-0031545'
p589
(S'K.White'
p590
S'WR'
p591
S'CHI'
p592
(lp593
F0.6000000000000001
aI0
aI0
aI0
aI0
aI0
aI0
aI0
aI0
aI0
aI0
aI0
aI0
aI0
aI0
aI0
atp594
sS'00-0021429'
p595
(S'C.Palmer'
p596
S'QB'
p597
S'ARI'
p598
(lp599
F10.96
aF17.880000000000003
aF25.7
aF18.380000000000003
aF17.64
aF26.92
aF2.88
aI0
aI0
aI0
aI0
aI0
aI0
aI0
aI0
aI0
atp600
sS'00-0028097'
p601
(S'L.Smith'
p602
S'TE'
p603
S'OAK'
p604
(lp605
I0
aF0.9
aI0
aF1.5
aI0
aI0
aI0
aF2.1
aI0
aI0
aI0
aF1.2000000000000002
aI0
aI0
aF0.30000000000000004
aF1.6
atp606
sS'00-0031549'
p607
(S'N.Agholor'
p608
S'WR'
p609
S'PHI'
p610
(lp611
F14.6
aF6.9
aF2.0
aF5.800000000000001
aF15.3
aF11.5
aF10.5
aF2.6
aF3.6
aI0
aF-0.2
aF9.2
aF20.1
aF6.4
aF11.9
aF3.5
atp612
sS'00-0029587'
p613
(S'R.Ellison'
p614
S'TE'
p615
S'NYG'
p616
(lp617
F0.9
aF2.1
aI0
aF7.1
aF0.9
aI0
aI0
aI0
aF2.1
aI0
aF0.7000000000000001
aF0.9
aF0.5
aF8.0
aI0
aF6.0
atp618
sS'00-0027139'
p619
(S'J.Phillips'
p620
S'TE'
p621
S'NO'
p622
(lp623
I0
aI0
aI0
aI0
aI0
aI0
aI0
aI0
aI0
aI0
aI0
aI0
aI0
aI0
aI0
aI0
atp624
sS'00-0031102'
p625
(S'K.Bibbs'
p626
S'RB'
p627
S'WAS'
p628
(lp629
I0
aI0
aI0
aI0
aI0
aI0
aI0
aI0
aI0
aI0
aI0
aI0
aI0
aI0
aF11.3
aF5.4
atp630
sS'00-0028042'
p631
(S'L.Stocker'
p632
S'TE'
p633
S'TB'
p634
(lp635
I0
aI0
aI0
aI0
aI0
aF0.5
aI0
aI0
aF7.3
aI0
aI0
aI0
aI0
aI0
aI0
aI0
atp636
sS'00-0033968'
p637
(S'S.Coley'
p638
S'WR'
p639
S'MIN'
p640
(lp641
I0
aI0
aI0
aI0
aI0
aF1.9000000000000001
aI0
aI0
aI0
aI0
aI0
aI0
aI0
aI0
aI0
aI0
atp642
sS'00-0030542'
p643
(S'T.Williams'
p644
S'WR'
p645
S'DAL'
p646
(lp647
F6.800000000000001
aF1.7000000000000002
aF4.7
aF3.4000000000000004
aF1.4000000000000001
aI0
aI0
aF3.6
aF14.100000000000001
aF0.9
aF3.5
aF6.0
aF2.1
aF2.5
aF1.9000000000000001
aF4.3
atp648
sS'00-0028957'
p649
(S'A.Davis'
p650
S'QB'
p651
S'SEA'
p652
(lp653
I0
aI0
aI0
aI0
aI0
aI0
aF-0.1
aI0
aI0
aI0
aI0
aI0
aI0
aI0
aI0
aI0
atp654
sS'00-0032063'
p655
(S'M.Davis'
p656
S'RB'
p657
S'SEA'
p658
(lp659
I0
aI0
aI0
aI0
aI0
aI0
aI0
aI0
aI0
aI0
aF5.9
aI0
aF10.100000000000001
aF6.500000000000001
aF3.9000000000000004
aF4.3
atp660
sS'00-0031897'
p661
(S'T.Rawls'
p662
S'RB'
p663
S'SEA'
p664
(lp665
I0
aF0.4
aI0
aI0
aF3.5
aI0
aF3.2
aF-0.1
aF7.0
aF3.9000000000000004
aI0
aI0
aF0.4
aI0
aI0
aF2.0
atp666
sS'00-0024535'
p667
(S'E.Weems'
p668
S'WR'
p669
S'TEN'
p670
(lp671
I0
aF0.0
aI0
aI0
aF1.8
aF1.5
aF0.5
aI0
aI0
aI0
aI0
aI0
aI0
aF0.0
aI0
aI0
atp672
sS'00-0030549'
p673
(S'T.Eifert'
p674
S'TE'
p675
S'CIN'
p676
(lp677
F0.4
aF4.2
aI0
aI0
aI0
aI0
aI0
aI0
aI0
aI0
aI0
aI0
aI0
aI0
aI0
aI0
atp678
sS'00-0032134'
p679
(S'C.Uzomah'
p680
S'TE'
p681
S'CIN'
p682
(lp683
I0
aI0
aI0
aF1.1
aF2.1
aI0
aF0.7000000000000001
aI0
aI0
aI0
aI0
aI0
aF2.1
aI0
aF2.4000000000000004
aF6.1
atp684
sS'00-0032135'
p685
(S'J.James'
p686
S'TE'
p687
S'PIT'
p688
(lp689
F16.1
aF2.7
aF1.9000000000000001
aF4.0
aF2.4000000000000004
aI0
aI0
aF4.2
aI0
aI0
aF8.1
aF3.2
aF1.3
aF9.700000000000001
aF0.7000000000000001
aI0
atp690
sS'00-0025565'
p691
(S'N.Folk'
p692
S'K'
p693
S'TB'
p694
(lp695
I0
aI13
aI5
aI7
aI2
aI0
aI0
aI0
aI0
aI0
aI0
aI0
aI0
aI0
aI0
aI0
atp696
sS'00-0033449'
p697
(S'I.Whitney'
p698
S'WR'
p699
S'OAK'
p700
(lp701
I0
aI0
aI0
aI0
aI0
aI0
aI0
aI0
aI0
aI0
aI0
aI0
aI0
aI0
aI0
aI0
atp702
sS'00-0031682'
p703
(S'T.Ward'
p704
S'RB'
p705
S'ATL'
p706
(lp707
I0
aI0
aI0
aI0
aI0
aI0
aI0
aI0
aI0
aF2.3000000000000003
aF4.2
aF1.2
aI0
aI0
aF4.6
aI0
atp708
sS'00-0031547'
p709
(S'D.Parker'
p710
S'WR'
p711
S'MIA'
p712
(lp713
I0
aF8.5
aF13.600000000000001
aF6.9
aF0.6000000000000001
aI0
aI0
aI0
aF7.6000000000000005
aF6.6000000000000005
aI0
aF0.5
aF0.5
aF4.0
aF8.9
aF6.300000000000001
atp714
sS'00-0032139'
p715
(S'B.Koyack'
p716
S'TE'
p717
S'JAX'
p718
(lp719
I0
aI0
aI0
aI0
aI0
aF2.1
aF0.7000000000000001
aI0
aI0
aI0
aI0
aI0
aI0
aI0
aF0.0
aF3.0
atp720
sS'00-0029576'
p721
(S'B.Walsh'
p722
S'K'
p723
S'SEA'
p724
(lp725
I9
aI6
aI3
aI8
aI10
aI0
aI6
aI11
aI0
aI8
aI11
aI6
aI6
aI6
aI1
aI3
atp726
sS'00-0033725'
p727
(S'C.Clement'
p728
S'RB'
p729
S'PHI'
p730
(lp731
I0
aI0
aF11.7
aF3.0
aF3.9000000000000004
aF0.2
aF7.5
aF5.4
aF24.6
aI0
aF13.0
aF3.9000000000000004
aF3.7
aF5.200000000000001
aF3.2000000000000006
aF2.0
atp732
sS'00-0029572'
p733
(S'J.Wright'
p734
S'WR'
p735
S'MIN'
p736
(lp737
F2.1
aF0.9
aF6.9
aI0
aI0
aI0
aF5.4
aI0
aI0
aF6.7
aF2.3000000000000003
aF2.5
aF1.8
aF1.3
aF1.1
aF0.8
atp738
sS'00-0033681'
p739
(S'K.Cole'
p740
S'WR'
p741
S'JAX'
p742
(lp743
I0
aF2.7
aF2.5
aF1.0
aF0.4
aF0.7000000000000001
aF6.4
aI0
aF4.7
aF6.1000000000000005
aF2.4000000000000004
aF3.0
aF10.9
aF15.9
aF24.6
aF10.8
atp744
sS'00-0028002'
p745
(S'R.Cobb'
p746
S'WR'
p747
S'GB'
p748
(lp749
F8.5
aF7.0
aI0
aF10.4
aF2.9000000000000004
aF2.8000000000000003
aF1.5
aI0
aF5.9
aF6.0
aF3.4000000000000004
aF11.8
aI0
aF3.9000000000000004
aF14.4
aF1.6
atp750
sS'00-0029615'
p751
(S'L.Miller'
p752
S'RB'
p753
S'HOU'
p754
(lp755
F9.6
aF8.700000000000001
aF6.300000000000001
aF25.1
aF8.9
aF8.100000000000001
aI0
aF19.299999999999997
aF9.100000000000001
aF7.4
aF14.3
aF11.8
aF9.4
aF6.000000000000001
aF3.3000000000000003
aF6.5
atp756
sS'00-0030085'
p757
(S'K.Stills'
p758
S'WR'
p759
S'MIA'
p760
(lp761
I0
aF9.7
aF5.1000000000000005
aF1.3
aF1.3
aF10.9
aF20.5
aF6.5
aF2.8000000000000003
aF6.7
aI0
aF4.7
aF13.8
aF1.8
aF0.8
aF3.4000000000000004
atp762
sS'00-0030181'
p763
(S'J.Doyle'
p764
S'TE'
p765
S'IND'
p766
(lp767
F4.1000000000000005
aF7.9
aF-0.3999999999999999
aF2.7
aI0
aF9.0
aF4.4
aF18.1
aF6.300000000000001
aF0.9
aI0
aF9.4
aF1.6
aF6.4
aF4.7
aF4.1000000000000005
atp768
sS'00-0029205'
p769
(S'T.Cadet'
p770
S'RB'
p771
S'NYJ'
p772
(lp773
I0
aI0
aI0
aI0
aI0
aF2.9000000000000004
aI0
aI0
aI0
aI0
aF5.6000000000000005
aF4.9
aF4.1000000000000005
aF0.2
aF3.8000000000000007
aF0.0
atp774
sS'00-0032966'
p775
(S'C.Coleman'
p776
S'WR'
p777
S'CLE'
p778
(lp779
F11.3
aF0.9
aI0
aI0
aI0
aI0
aI0
aI0
aI0
aI0
aF8.0
aF6.4
aI0
aF12.2
aF1.6
aF0.30000000000000004
atp780
sS'00-0032964'
p781
(S'B.Marshall'
p782
S'RB'
p783
S'WAS'
p784
(lp785
I0
aI0
aI0
aI0
aI0
aI0
aI0
aI0
aI0
aI0
aF0.2
aF6.800000000000001
aF6.500000000000001
aF2.2
aI0
aI0
atp786
sS'00-0022127'
p787
(S'J.Witten'
p788
S'TE'
p789
S'DAL'
p790
(lp791
F11.9
aF15.700000000000001
aF0.30000000000000004
aF0.9
aF4.1000000000000005
aI0
aF11.4
aF3.1
aF0.5
aF5.9
aF0.7000000000000001
aF4.4
aF6.8
aF8.0
aF4.7
aF3.9000000000000004
atp792
sS'00-0030433'
p793
(S'M.Gillislee'
p794
S'RB'
p795
S'NE'
p796
(lp797
F22.5
aF12.9
aF3.1
aF4.9
aF5.2
aF2.4000000000000004
aF3.1
aF3.4000000000000004
aI0
aI0
aI0
aI0
aI0
aI0
aI0
aF10.3
atp798
sS'00-0023564'
p799
(S'D.Sproles'
p800
S'RB'
p801
S'PHI'
p802
(lp803
F4.5
aF6.800000000000001
aF1.1
aI0
aI0
aI0
aI0
aI0
aI0
aI0
aI0
aI0
aI0
aI0
aI0
aI0
atp804
sS'00-0030431'
p805
(S'R.Woods'
p806
S'WR'
p807
S'LA'
p808
(lp809
F5.300000000000001
aF0.8
aF10.8
aF1.7000000000000002
aF7.4
aF5.0
aF6.300000000000001
aI0
aF19.0
aF29.1
aF8.1
aI0
aI0
aI0
aF10.5
aF3.3000000000000003
atp810
sS'00-0030821'
p811
(S'A.Hurns'
p812
S'WR'
p813
S'JAX'
p814
(lp815
F4.2
aF14.200000000000001
aF8.0
aF4.2
aF2.1
aF3.7
aF10.100000000000001
aI0
aF3.1
aF7.0
aI0
aI0
aI0
aI0
aI0
aI0
atp816
sS'00-0024221'
p817
(S'V.Davis'
p818
S'TE'
p819
S'WAS'
p820
(lp821
I0
aF1.3
aF11.8
aF8.9
aI0
aF4.5
aF6.7
aF2.0
aF7.2
aF7.6000000000000005
aF6.7
aI0
aF1.5
aF8.6
aF-0.19999999999999996
aF10.2
atp822
sS'00-0024226'
p823
(S'J.Cutler'
p824
S'QB'
p825
S'MIA'
p826
(lp827
I0
aF15.100000000000001
aF13.700000000000001
aF5.0600000000000005
aF8.48
aF15.940000000000001
aF15.52
aI0
aF30.439999999999998
aF18.42
aI0
aI0
aF17.5
aF28.92
aF5.760000000000002
aF17.34
atp828
sS'00-0029689'
p829
(S'D.Allen'
p830
S'TE'
p831
S'NE'
p832
(lp833
I0
aI0
aI0
aI0
aI0
aI0
aI0
aI0
aI0
aF7.1
aF2.4000000000000004
aF0.2
aF0.30000000000000004
aF1.0
aF1.0
aF2.6
atp834
sS'00-0033611'
p835
(S'R.Seals-Jones'
p836
S'TE'
p837
S'ARI'
p838
(lp839
I0
aI0
aI0
aI0
aI0
aI0
aI0
aI0
aI0
aI0
aF17.4
aF13.2
aF4.4
aF2.0
aF1.1
aI0
atp840
sS'00-0032004'
p841
(S'W.Tye'
p842
S'TE'
p843
S'NYJ'
p844
(lp845
F3.4000000000000004
aF0.4
aI0
aI0
aI0
aI0
aI0
aI0
aI0
aI0
aI0
aI0
aI0
aI0
aI0
aI0
atp846
sS'00-0031806'
p847
(S'M.Brown'
p848
S'RB'
p849
S'LA'
p850
(lp851
F7.6
aF-0.4
aI0
aF1.4000000000000001
aF2.9000000000000004
aF1.7000000000000002
aF5.500000000000001
aI0
aF5.7
aI0
aI0
aI0
aI0
aF0.5
aF4.5
aF0.4
atp852
sS'00-0029273'
p853
(S'R.Turbin'
p854
S'RB'
p855
S'IND'
p856
(lp857
F0.30000000000000004
aF1.9000000000000001
aF2.0
aF6.8
aF1.9000000000000001
aF4.0
aI0
aI0
aI0
aI0
aI0
aI0
aI0
aI0
aI0
aI0
atp858
sS'00-0025396'
p859
(S'T.Ginn'
p860
S'WR'
p861
S'NO'
p862
(lp863
F5.800000000000001
aF4.0
aF13.1
aF6.0
aI0
aF16.1
aF14.8
aF9.9
aF13.5
aF2.2
aF7.500000000000001
aF7.1000000000000005
aF3.3000000000000003
aF0.7
aI0
aF15.0
atp864
sS'00-0033858'
p865
(S'J.Smith'
p866
S'TE'
p867
S'TEN'
p868
(lp869
I0
aF9.0
aF8.4
aI0
aF2.1
aF1.0
aF2.2
aI0
aI0
aF2.0
aI0
aI0
aI0
aI0
aF0.5
aF1.3
atp870
sS'00-0033434'
p871
(S'B.Wilson'
p872
S'WR'
p873
S'TB'
p874
(lp875
I0
aI0
aI0
aI0
aI0
aI0
aI0
aI0
aI0
aI0
aI0
aI0
aF0.4
aI0
aI0
aF7.8
atp876
sS'00-0031428'
p877
(S'A.Robinson'
p878
S'WR'
p879
S'JAX'
p880
(lp881
F1.7000000000000002
aI0
aI0
aI0
aI0
aI0
aI0
aI0
aI0
aI0
aI0
aI0
aI0
aI0
aI0
aI0
atp882
sS'00-0031800'
p883
(S'T.Heinicke'
p884
S'QB'
p885
S'HOU'
p886
(lp887
I0
aI0
aI0
aI0
aI0
aI0
aI0
aI0
aI0
aI0
aI0
aI0
aI0
aI0
aI0
aF0.6000000000000001
atp888
sS'00-0032918'
p889
(S'C.Ham'
p890
S'RB'
p891
S'MIN'
p892
(lp893
I0
aF6.1
aF1.2000000000000002
aI0
aF1.1
aI0
aF1.2000000000000002
aI0
aI0
aF0.30000000000000004
aF0.8
aI0
aF1.3000000000000003
aF0.9
aF0.6000000000000001
aI0
atp894
sS'00-0027902'
p895
(S'D.Bryant'
p896
S'WR'
p897
S'DAL'
p898
(lp899
F4.3
aF11.9
aF7.2
aF9.8
aF11.2
aI0
aF12.3
aF3.9000000000000004
aF7.300000000000001
aF3.9000000000000004
aF6.300000000000001
aF3.7
aF12.100000000000001
aF13.3
aF5.5
aF2.4000000000000004
atp900
sS'00-0033025'
p901
(S'J.Richard'
p902
S'RB'
p903
S'OAK'
p904
(lp905
F3.3000000000000003
aF18.200000000000003
aF1.2000000000000002
aF3.5
aF4.4
aF7.300000000000001
aF7.6
aF6.300000000000001
aF3.5
aI0
aF2.8000000000000003
aF11.5
aF4.9
aI0
aF2.1
aF6.4
atp906
sS'00-0027854'
p907
(S'S.Bradford'
p908
S'QB'
p909
S'MIN'
p910
(lp911
F31.54
aI0
aI0
aI0
aF1.44
aI0
aI0
aI0
aI0
aI0
aI0
aI0
aI0
aI0
aI0
aI0
atp912
sS'00-0029293'
p913
(S'M.Jones'
p914
S'WR'
p915
S'DET'
p916
(lp917
F9.7
aF8.7
aF2.4000000000000004
aF4.2
aF5.4
aF15.600000000000001
aI0
aF12.8
aF22.700000000000003
aF2.2
aF14.5
aF22.9
aF9.0
aF6.4
aF8.5
aF5.0
atp918
sS'00-0031744'
p919
(S'M.LaCosse'
p920
S'TE'
p921
S'NYG'
p922
(lp923
I0
aI0
aI0
aI0
aI0
aI0
aI0
aI0
aI0
aI0
aI0
aI0
aI0
aI0
aI0
aI0
atp924
sS'00-0022942'
p925
(S'P.Rivers'
p926
S'QB'
p927
S'LAC'
p928
(lp929
F23.68
aF19.240000000000002
aF3.4800000000000004
aF23.880000000000003
aF26.82
aF16.32
aF19.32
aF12.48
aI0
aF19.3
aF22.04
aF34.86
aF19.560000000000002
aF24.759999999999998
aF9.08
aF17.6
atp930
sS'00-0022943'
p931
(S'B.Watson'
p932
S'TE'
p933
S'BAL'
p934
(lp935
I0
aF9.1
aF7.2
aF4.3
aF0.2
aF2.8000000000000003
aF3.8000000000000003
aF6.6
aF4.1000000000000005
aI0
aF3.3000000000000003
aF2.9000000000000004
aF8.4
aI0
aF13.4
aF4.0
atp936
sS'00-0031939'
p937
(S'M.Jones'
p938
S'RB'
p939
S'IND'
p940
(lp941
I0
aI0
aF0.30000000000000004
aF1.1
aI0
aI0
aI0
aI0
aI0
aI0
aI0
aI0
aI0
aI0
aI0
aI0
atp942
sS'00-0026035'
p943
(S'D.Amendola'
p944
S'WR'
p945
S'NE'
p946
(lp947
F10.8
aI0
aF10.100000000000001
aF10.2
aF12.8
aF6.0
aF1.6
aF5.6000000000000005
aI0
aF3.6
aF12.600000000000001
aF1.9
aF3.4000000000000004
aF9.200000000000001
aF3.4000000000000004
aF4.7
atp948
sS'00-0032257'
p949
(S'D.Johnson'
p950
S'RB'
p951
S'CLE'
p952
(lp953
F2.0
aF8.0
aF16.4
aF12.0
aF14.3
aF3.9
aF7.1
aF4.300000000000001
aI0
aF8.8
aF12.600000000000001
aF6.7
aF2.4000000000000004
aF11.4
aF10.3
aF10.1
atp954
sS'00-0032256'
p955
(S'C.Walford'
p956
S'TE'
p957
S'OAK'
p958
(lp959
I0
aF0.7000000000000001
aF-0.1
aI0
aI0
aI0
aI0
aI0
aI0
aI0
aF0.4
aI0
aF5.7
aF1.3
aI0
aI0
atp960
sS'00-0032319'
p961
(S'R.Travis'
p962
S'TE'
p963
S'KC'
p964
(lp965
I0
aI0
aI0
aI0
aF2.6
aI0
aF0.30000000000000004
aI0
aF0.30000000000000004
aI0
aF1.1
aI0
aI0
aI0
aF3.3000000000000003
aI0
atp966
sS'00-0030668'
p967
(S'C.West'
p968
S'RB'
p969
S'KC'
p970
(lp971
F8.5
aI0
aF1.3
aF3.5000000000000004
aF13.3
aF0.9
aI0
aF0.4
aF3.3
aI0
aF2.4
aF4.4
aI0
aF8.5
aF0.6000000000000001
aF2.8000000000000003
atp972
sS'00-0032268'
p973
(S'M.Mariota'
p974
S'QB'
p975
S'TEN'
p976
(lp977
F18.840000000000003
aF15.0
aF23.7
aF15.740000000000002
aI0
aF16.240000000000002
aF8.920000000000002
aI0
aF19.32
aF19.66
aF16.740000000000002
aF9.760000000000002
aF20.3
aF3.460000000000001
aF22.04
aF11.4
atp978
sS'00-0028009'
p979
(S'D.Murray'
p980
S'RB'
p981
S'TEN'
p982
(lp983
F6.0
aF2.8
aF18.0
aF3.5
aF4.9
aF14.7
aF7.6000000000000005
aI0
aF4.1000000000000005
aF25.2
aF4.7
aF10.200000000000001
aF7.9
aF4.7
aF6.300000000000001
aF11.9
atp984
sS'00-0026213'
p985
(S'J.Charles'
p986
S'RB'
p987
S'DEN'
p988
(lp989
F2.0
aF5.200000000000001
aF11.700000000000001
aF4.7
aI0
aF2.1
aF2.2
aF2.4000000000000004
aF2.4000000000000004
aF3.8000000000000003
aF0.7000000000000001
aF1.0
aF5.1000000000000005
aF1.2000000000000002
aI0
aI0
atp990
sS'00-0032707'
p991
(S'A.Jones'
p992
S'WR'
p993
S'DET'
p994
(lp995
I0
aI0
aI0
aI0
aI0
aI0
aI0
aI0
aI0
aI0
aI0
aI0
aI0
aI0
aI0
aI0
atp996
sS'00-0032705'
p997
(S'E.Eagan'
p998
S'WR'
p999
S'NYG'
p1000
(lp1001
I0
aI0
aI0
aI0
aI0
aF2.0
aF0.0
aI0
aI0
aF0.0
aI0
aI0
aI0
aI0
aI0
aI0
atp1002
sS'00-0031503'
p1003
(S'J.Winston'
p1004
S'QB'
p1005
S'TB'
p1006
(lp1007
I0
aF14.46
aF19.520000000000003
aF32.480000000000004
aF20.46
aF2.44
aF29.36
aF3.7
aF3.4800000000000004
aI0
aI0
aI0
aF22.6
aF18.4
aF31.76
aF15.28
atp1008
sS'00-0030288'
p1009
(S'R.Burkhead'
p1010
S'RB'
p1011
S'NE'
p1012
(lp1013
F2.3
aF10.4
aI0
aI0
aI0
aI0
aF4.2
aF8.3
aI0
aF12.3
aF3.7
aF17.3
aF24.0
aF11.3
aF7.7
aI0
atp1014
sS'00-0029854'
p1015
(S'C.Anderson'
p1016
S'RB'
p1017
S'DEN'
p1018
(lp1019
F8.799999999999999
aF27.400000000000002
aF4.3
aF11.2
aI0
aF1.7000000000000002
aF6.1000000000000005
aF8.5
aF1.3
aF5.5
aF9.6
aF1.2000000000000002
aF11.0
aF7.300000000000001
aF15.8
aF21.3
atp1020
sS'00-0033090'
p1021
(S'H.Henry'
p1022
S'TE'
p1023
S'LAC'
p1024
(lp1025
I0
aF8.0
aI0
aF7.6
aF10.2
aF9.0
aF7.300000000000001
aF1.1
aI0
aF0.7000000000000001
aF2.5
aF13.600000000000001
aF8.1
aF11.0
aF2.8000000000000003
aI0
atp1026
sS'00-0033094'
p1027
(S'M.Hall'
p1028
S'WR'
p1029
S'ATL'
p1030
(lp1031
I0
aI0
aI0
aI0
aI0
aF10.0
aI0
aI0
aI0
aI0
aI0
aI0
aF2.0
aI0
aI0
aI0
atp1032
sS'00-0033095'
p1033
(S'G.Griffin'
p1034
S'TE'
p1035
S'NO'
p1036
(lp1037
I0
aI0
aI0
aI0
aI0
aI0
aI0
aI0
aI0
aI0
aI0
aI0
aI0
aI0
aF1.1
aI0
atp1038
sS'00-0021547'
p1039
(S'A.Gates'
p1040
S'TE'
p1041
S'LAC'
p1042
(lp1043
F1.7000000000000002
aF7.1
aF3.0
aF1.8
aF2.3000000000000003
aF1.6
aF0.4
aF2.5
aI0
aF0.30000000000000004
aI0
aI0
aF3.2
aI0
aF7.0
aF14.1
atp1044
sS'00-0027981'
p1045
(S'K.Rudolph'
p1046
S'TE'
p1047
S'MIN'
p1048
(lp1049
F8.6
aF4.5
aF0.4
aF3.4000000000000004
aF10.5
aF4.7
aF4.3
aF8.7
aI0
aF3.7
aF5.800000000000001
aF18.3
aF9.6
aF10.100000000000001
aF7.7
aF0.6000000000000001
atp1050
sS'00-0027985'
p1051
(S'L.Kendricks'
p1052
S'TE'
p1053
S'GB'
p1054
(lp1055
F1.8
aI0
aF11.2
aF0.0
aF2.4000000000000004
aI0
aI0
aI0
aF3.2
aF0.9
aF0.5
aI0
aF1.1
aF1.1
aF0.5
aF3.6
atp1056
sS'00-0031273'
p1057
(S'C.Brate'
p1058
S'TE'
p1059
S'TB'
p1060
(lp1061
I0
aF2.4000000000000004
aF9.3
aF14.0
aF12.8
aF13.600000000000001
aF6.0
aF6.4
aF0.9
aF1.0
aI0
aF0.6000000000000001
aF15.9
aF1.1
aF4.9
aF1.3
atp1062
sS'00-0031068'
p1063
(S'R.Grant'
p1064
S'WR'
p1065
S'WAS'
p1066
(lp1067
F6.1000000000000005
aF7.1
aF3.1
aF7.6
aI0
aF3.9000000000000004
aF1.9000000000000001
aF3.8000000000000003
aF3.9000000000000004
aF2.5
aF11.9
aF0.30000000000000004
aF13.600000000000001
aF2.8000000000000003
aF2.0
aF8.5
atp1068
sS'00-0031062'
p1069
(S'J.White'
p1070
S'RB'
p1071
S'NE'
p1072
(lp1073
F6.800000000000001
aF9.6
aF2.8000000000000003
aF5.4
aF6.0
aF4.5
aF10.700000000000001
aF8.7
aI0
aF7.800000000000001
aF1.3
aF1.5
aF5.0
aF7.1
aF0.8
aI0
atp1074
sS'00-0033923'
p1075
(S'K.Hunt'
p1076
S'RB'
p1077
S'KC'
p1078
(lp1079
F40.6
aF22.900000000000002
aF24.3
aF12.100000000000001
aF11.600000000000001
aF11.0
aF11.700000000000001
aF6.800000000000001
aF6.1000000000000005
aI0
aF7.700000000000001
aF2.6
aF6.300000000000001
aF19.8
aF32.6
aF16.6
atp1080
sS'00-0033292'
p1081
(S'T.Taylor'
p1082
S'WR'
p1083
S'SF'
p1084
(lp1085
F1.7000000000000002
aF4.6
aF10.100000000000001
aF8.8
aF0.6000000000000001
aF5.0
aF2.9000000000000004
aF4.2
aF3.2
aI0
aI0
aF5.2
aF11.3
aF2.6
aF5.2
aF10.3
atp1086
sS'00-0033925'
p1087
(S'D.Foreman'
p1088
S'RB'
p1089
S'HOU'
p1090
(lp1091
F0.4
aF4.0
aF9.0
aF4.5
aF1.7000000000000004
aF5.9
aI0
aI0
aF3.7
aF1.8
aF21.2
aI0
aI0
aI0
aI0
aI0
atp1092
sS'00-0031064'
p1093
(S'T.Savage'
p1094
S'QB'
p1095
S'HOU'
p1096
(lp1097
F-1.52
aI0
aI0
aI0
aI0
aI0
aI0
aI0
aF12.76
aF6.84
aF17.5
aF4.08
aF18.5
aF2.52
aI0
aI0
atp1098
sS'00-0033840'
p1099
(S'C.Hansen'
p1100
S'WR'
p1101
S'NYJ'
p1102
(lp1103
I0
aI0
aI0
aI0
aI0
aI0
aI0
aI0
aI0
aF3.3000000000000003
aI0
aI0
aF2.5
aI0
aF2.1
aI0
atp1104
sS'00-0032104'
p1105
(S'A.Abdullah'
p1106
S'RB'
p1107
S'DET'
p1108
(lp1109
F4.1
aF8.6
aF8.600000000000001
aF16.9
aF3.4000000000000004
aF5.4
aI0
aF3.8000000000000003
aF9.700000000000001
aF11.5
aF11.0
aF4.300000000000001
aI0
aI0
aF4.6
aF14.0
atp1110
sS'00-0029613'
p1111
(S'D.Martin'
p1112
S'RB'
p1113
S'TB'
p1114
(lp1115
I0
aI0
aI0
aI0
aF14.200000000000001
aF14.4
aF8.0
aF7.500000000000001
aF0.7000000000000001
aF5.1000000000000005
aI0
aF3.3000000000000003
aI0
aF9.0
aI0
aF0.7000000000000001
atp1116
sS'00-0031599'
p1117
(S'C.Artis-Payne'
p1118
S'RB'
p1119
S'CAR'
p1120
(lp1121
I0
aI0
aI0
aI0
aI0
aI0
aI0
aF1.0
aF0.30000000000000004
aF12.8
aI0
aF0.0
aI0
aI0
aI0
aI0
atp1122
sS'00-0031598'
p1123
(S'N.Boyle'
p1124
S'TE'
p1125
S'BAL'
p1126
(lp1127
F1.4000000000000001
aF0.9
aF1.4000000000000001
aF3.6
aF0.9
aF3.5
aF1.2000000000000002
aF2.9000000000000004
aI0
aI0
aF0.2
aF0.9
aF1.1
aF0.1
aF0.9
aF0.9
atp1128
sS'00-0030710'
p1129
(S'T.Burton'
p1130
S'TE'
p1131
S'PHI'
p1132
(lp1133
I0
aF1.0
aF0.7000000000000001
aI0
aF7.6
aF0.9
aF0.7000000000000001
aF2.1
aF10.100000000000001
aI0
aI0
aI0
aF4.2
aF19.1
aF7.5
aI0
atp1134
sS'00-0030711'
p1135
(S'D.Fluellen'
p1136
S'RB'
p1137
S'TEN'
p1138
(lp1139
I0
aF1.8
aI0
aF0.30000000000000004
aI0
aI0
aI0
aI0
aI0
aI0
aI0
aI0
aI0
aI0
aI0
aI0
atp1140
sS'00-0031590'
p1141
(S'J.Ajayi'
p1142
S'RB'
p1143
S'MIA'
p1144
(lp1145
I0
aF12.600000000000001
aF2.5
aF5.4
aF5.9
aF13.0
aF7.700000000000001
aF4.1000000000000005
aF13.7
aI0
aF10.1
aF3.3000000000000003
aF4.6
aF8.0
aF8.9
aF11.299999999999999
atp1146
sS'00-0027675'
p1147
(S'E.Dickson'
p1148
S'TE'
p1149
S'CAR'
p1150
(lp1151
I0
aF2.6
aF0.8
aF6.2
aF17.5
aF3.6
aF1.8
aF2.4000000000000004
aI0
aF9.3
aI0
aF1.5
aF1.8
aI0
aI0
aI0
atp1152
sS'00-0025580'
p1153
(S'M.Crosby'
p1154
S'K'
p1155
S'GB'
p1156
(lp1157
I5
aI5
aI9
aI5
aI5
aI4
aI5
aI0
aI5
aI13
aI0
aI4
aI8
aI3
aI6
aI0
atp1158
sS'00-0030565'
p1159
(S'G.Smith'
p1160
S'QB'
p1161
S'NYG'
p1162
(lp1163
I0
aI0
aI0
aI0
aI0
aI0
aI0
aI0
aF-0.1
aI0
aI0
aI0
aF11.780000000000001
aI0
aI0
aI0
atp1164
sS'00-0028142'
p1165
(S'V.Green'
p1166
S'TE'
p1167
S'DEN'
p1168
(lp1169
F4.4
aF7.1
aF1.8
aI0
aI0
aF2.4000000000000004
aF0.7000000000000001
aF1.6
aI0
aI0
aF1.3
aF1.6
aF3.6
aI0
aI0
aI0
atp1170
sS'00-0027006'
p1171
(S'K.Britt'
p1172
S'WR'
p1173
S'CLE'
p1174
(lp1175
F1.3
aF0.2
aF11.4
aF5.2
aI0
aI0
aF0.7000000000000001
aI0
aI0
aF9.8
aF0.5
aF5.2
aF1.0
aI0
aF0.7000000000000001
aF1.6
atp1176
sS'00-0030300'
p1177
(S'Ja.Brown'
p1178
S'WR'
p1179
S'ARI'
p1180
(lp1181
I0
aF7.300000000000001
aF8.7
aF10.5
aF3.9000000000000004
aF3.0
aF3.7
aI0
aF6.3
aF1.3
aF2.2
aF11.2
aI0
aF1.5
aF0.9
aF2.7
atp1182
sS'00-0030472'
p1183
(S'J.Reed'
p1184
S'TE'
p1185
S'WAS'
p1186
(lp1187
F3.6
aF4.800000000000001
aI0
aF2.1
aI0
aF3.7
aF18.4
aF0.5
aI0
aI0
aI0
aI0
aI0
aI0
aI0
aI0
atp1188
sS'00-0030578'
p1189
(S'C.Patterson'
p1190
S'WR'
p1191
S'OAK'
p1192
(lp1193
F4.800000000000001
aF19.3
aF3.9000000000000004
aF10.5
aF3.1
aF15.9
aF2.8000000000000003
aF5.0
aF6.1000000000000005
aI0
aF4.5
aF7.7
aF9.8
aF0.8
aF10.6
aF0.7000000000000001
atp1194
sS'00-0030470'
p1195
(S'V.McDonald'
p1196
S'TE'
p1197
S'PIT'
p1198
(lp1199
I0
aI0
aI0
aI0
aI0
aF2.6
aF3.7
aI0
aI0
aF7.6
aI0
aI0
aI0
aF5.2
aI0
aF5.2
atp1200
sS'00-0024264'
p1201
(S'K.Clemens'
p1202
S'QB'
p1203
S'LAC'
p1204
(lp1205
I0
aI0
aI0
aI0
aI0
aI0
aI0
aI0
aI0
aI0
aF1.02
aI0
aI0
aF-1.88
aI0
aI0
atp1206
sS'00-0030564'
p1207
(S'D.Hopkins'
p1208
S'WR'
p1209
S'HOU'
p1210
(lp1211
F11.5
aF7.300000000000001
aF7.6000000000000005
aF16.700000000000003
aF23.2
aF7.9
aI0
aF28.400000000000002
aF14.6
aF11.100000000000001
aF13.600000000000001
aF12.5
aF8.0
aF24.9
aF14.0
aF12.5
atp1212
sS'00-0030670'
p1213
(S'B.Fowler'
p1214
S'WR'
p1215
S'DEN'
p1216
(lp1217
F14.1
aF0.8
aF5.5
aF3.5
aI0
aF2.1
aF4.5
aF3.5
aI0
aI0
aF1.8
aF9.3
aF2.3000000000000003
aI0
aI0
aF0.6000000000000001
atp1218
sS'00-0033576'
p1219
(S'E.Saubert'
p1220
S'TE'
p1221
S'ATL'
p1222
(lp1223
I0
aI0
aI0
aI0
aI0
aI0
aI0
aI0
aI0
aI0
aI0
aI0
aI0
aI0
aI0
aI0
atp1224
sS'00-0025399'
p1225
(S'M.Lynch'
p1226
S'RB'
p1227
S'OAK'
p1228
(lp1229
F9.200000000000001
aF10.9
aF2.6
aF1.2000000000000002
aF11.3
aF6.300000000000001
aF0.9
aI0
aF18.3
aI0
aF7.7
aF17.1
aF18.1
aF12.400000000000002
aF9.200000000000001
aF7.2
atp1230
sS'00-0031687'
p1231
(S'R.Mostert'
p1232
S'RB'
p1233
S'SF'
p1234
(lp1235
I0
aI0
aF1.1
aI0
aF0.30000000000000004
aF1.6
aF6.300000000000001
aI0
aI0
aI0
aI0
aI0
aI0
aI0
aI0
aI0
atp1236
sS'00-0033770'
p1237
(S'J.Hardee'
p1238
S'WR'
p1239
S'NO'
p1240
(lp1241
I0
aI0
aI0
aI0
aI0
aI0
aI0
aI0
aI0
aI0
aI0
aI0
aI0
aI0
aI0
aI0
atp1242
sS'00-0025394'
p1243
(S'A.Peterson'
p1244
S'RB'
p1245
S'NO'
p1246
(lp1247
F1.8
aF2.6
aF3.7
aF0.4
aI0
aF25.4
aF3.3000000000000003
aI0
aF14.700000000000001
aF2.2
aF3.9000000000000004
aF9.9
aI0
aI0
aI0
aI0
atp1248
sS'00-0032688'
p1249
(S'R.Anderson'
p1250
S'WR'
p1251
S'NYJ'
p1252
(lp1253
F2.2
aF2.8000000000000003
aF15.5
aF5.9
aF1.6
aF7.6000000000000005
aF9.5
aF16.5
aF10.8
aF14.5
aI0
aF26.6
aF11.4
aF2.7
aF4.0
aF5.1000000000000005
atp1254
sS'00-0032689'
p1255
(S'J.Vander Laan'
p1256
S'TE'
p1257
S'IND'
p1258
(lp1259
I0
aI0
aI0
aI0
aI0
aI0
aI0
aI0
aI0
aI0
aI0
aI0
aI0
aI0
aI0
aI0
atp1260
sS'00-0030737'
p1261
(S'F.Martino'
p1262
S'WR'
p1263
S'TB'
p1264
(lp1265
I0
aI0
aI0
aI0
aI0
aI0
aI0
aI0
aI0
aI0
aI0
aI0
aI0
aF1.9000000000000001
aF1.1
aF5.7
atp1266
sS'00-0029141'
p1267
(S'A.Morris'
p1268
S'RB'
p1269
S'DAL'
p1270
(lp1271
F0.1
aI0
aI0
aF7.6000000000000005
aF1.0
aI0
aF2.4
aF0.30000000000000004
aF1.1
aF5.300000000000001
aF9.1
aF4.9
aF18.700000000000003
aF8.5
aF6.1000000000000005
aI0
atp1272
sS'00-0029664'
p1273
(S'J.Gordon'
p1274
S'WR'
p1275
S'CLE'
p1276
(lp1277
I0
aI0
aI0
aI0
aI0
aI0
aI0
aI0
aI0
aI0
aI0
aI0
aF8.5
aF12.9
aF4.7
aF1.9000000000000001
atp1278
sS'00-0023459'
p1279
(S'A.Rodgers'
p1280
S'QB'
p1281
S'GB'
p1282
(lp1283
F18.54
aF22.520000000000003
aF30.82
aF31.060000000000002
aF30.04
aF0.72
aI0
aI0
aI0
aI0
aI0
aI0
aI0
aI0
aF27.9
aI0
atp1284
sS'00-0031484'
p1285
(S'C.Manhertz'
p1286
S'TE'
p1287
S'CAR'
p1288
(lp1289
I0
aI0
aI0
aI0
aI0
aI0
aF1.1
aI0
aI0
aI0
aI0
aI0
aI0
aF0.6000000000000001
aI0
aI0
atp1290
sS'00-0032950'
p1291
(S'C.Wentz'
p1292
S'QB'
p1293
S'PHI'
p1294
(lp1295
F22.880000000000003
aF28.82
aF15.24
aF17.08
aF35.26
aF27.380000000000003
aF39.02
aF21.14
aF32.76
aI0
aF24.02
aF29.98
aF18.92
aF35.24
aI0
aI0
atp1296
sS'00-0032951'
p1297
(S'L.Treadwell'
p1298
S'WR'
p1299
S'MIN'
p1300
(lp1301
F0.7000000000000001
aF3.3000000000000003
aF0.2
aI0
aI0
aF5.1000000000000005
aF2.8000000000000003
aF2.1
aI0
aI0
aF1.0
aI0
aF0.9
aF2.3000000000000003
aI0
aI0
atp1302
sS'00-0029394'
p1303
(S'B.Bersin'
p1304
S'WR'
p1305
S'CAR'
p1306
(lp1307
I0
aI0
aI0
aI0
aI0
aI0
aI0
aI0
aI0
aF1.2000000000000002
aI0
aI0
aF1.8
aF1.7000000000000002
aI0
aF4.5
atp1308
sS'00-0032523'
p1309
(S'H.Krieger-Coble'
p1310
S'TE'
p1311
S'IND'
p1312
(lp1313
I0
aI0
aI0
aI0
aI0
aI0
aI0
aI0
aI0
aI0
aI0
aI0
aI0
aI0
aI0
aI0
atp1314
sS'00-0031325'
p1315
(S'S.Watkins'
p1316
S'WR'
p1317
S'LA'
p1318
(lp1319
F5.800000000000001
aF3.0
aF22.6
aF1.7000000000000002
aI0
aF1.1
aF4.2
aI0
aF12.7
aF10.100000000000001
aF3.6
aF14.200000000000001
aF9.8
aF8.1
aF1.4000000000000001
aF9.0
atp1320
sS'00-0031326'
p1321
(S'B.Ellington'
p1322
S'WR'
p1323
S'HOU'
p1324
(lp1325
I0
aI0
aF11.8
aF5.7
aF3.0
aF2.2
aI0
aF1.3
aF2.2
aF11.8
aF7.700000000000001
aF5.0
aF0.7000000000000001
aI0
aI0
aI0
atp1326
sS'00-0032959'
p1327
(S'C.Peake'
p1328
S'WR'
p1329
S'NYJ'
p1330
(lp1331
I0
aF0.30000000000000004
aI0
aI0
aI0
aI0
aI0
aI0
aI0
aI0
aI0
aI0
aI0
aI0
aI0
aI0
atp1332
sS'00-0032584'
p1333
(S'N.Rose'
p1334
S'K'
p1335
S'WAS'
p1336
(lp1337
I0
aI0
aI0
aI0
aI0
aI0
aI6
aI7
aI5
aI14
aI7
aI8
aI2
aI1
aI0
aI2
atp1338
sS'00-0030404'
p1339
(S'C.Thompson'
p1340
S'RB'
p1341
S'WAS'
p1342
(lp1343
F13.399999999999999
aF24.200000000000003
aF24.8
aF0.7000000000000003
aI0
aF13.8
aF14.2
aF13.5
aF3.1
aF11.900000000000002
aF9.3
aI0
aI0
aI0
aI0
aI0
atp1344
sS'00-0032298'
p1345
(S'B.Hill'
p1346
S'RB'
p1347
S'ARI'
p1348
(lp1349
I0
aI0
aI0
aI0
aI0
aI0
aI0
aI0
aI0
aI0
aI0
aI0
aI0
aI0
aI0
aF-0.2
atp1350
sS'00-0032355'
p1351
(S'C.Rogers'
p1352
S'WR'
p1353
S'IND'
p1354
(lp1355
I0
aI0
aI0
aI0
aI0
aI0
aF2.1
aF0.9
aF1.7000000000000002
aF18.4
aI0
aF3.4000000000000004
aF3.3
aF0.8
aF0.7000000000000001
aF2.7
atp1356
sS'00-0030874'
p1357
(S'D.Williams'
p1358
S'RB'
p1359
S'MIA'
p1360
(lp1361
I0
aI0
aF1.1
aF0.1
aF2.8
aF2.3000000000000003
aF2.0
aF-0.1
aF12.100000000000001
aF3.9000000000000004
aI0
aF5.2
aI0
aI0
aI0
aI0
atp1362
sS'00-0032055'
p1363
(S'D.Funchess'
p1364
S'WR'
p1365
S'CAR'
p1366
(lp1367
F2.0
aF6.800000000000001
aF5.800000000000001
aF19.0
aF11.3
aF3.6
aF4.1000000000000005
aF1.1
aF8.6
aF21.200000000000003
aI0
aF10.8
aF12.0
aF11.9
aF1.9000000000000001
aF1.1
atp1368
sS'00-0032054'
p1369
(S'B.Perriman'
p1370
S'WR'
p1371
S'BAL'
p1372
(lp1373
F0.5
aI0
aI0
aF0.6000000000000001
aF1.5
aI0
aI0
aI0
aF2.8000000000000003
aI0
aI0
aI0
aI0
aI0
aF0.9
aF1.4000000000000001
atp1374
sS'00-0032058'
p1375
(S'T.Coleman'
p1376
S'RB'
p1377
S'ATL'
p1378
(lp1379
F5.800000000000001
aF10.5
aF8.9
aF14.4
aI0
aF9.6
aF1.6
aF10.400000000000002
aF8.4
aF14.8
aF11.8
aF21.700000000000003
aF4.9
aF3.2
aI0
aF11.2
atp1380
sS'00-0026153'
p1381
(S'J.Stewart'
p1382
S'RB'
p1383
S'CAR'
p1384
(lp1385
F14.2
aF4.0
aF6.1000000000000005
aF4.800000000000001
aF4.4
aF-0.4
aF4.800000000000001
aF9.4
aF-1.9
aF11.0
aI0
aF8.6
aF10.5
aF28.3
aF3.6
aF1.8
atp1386
sS'00-0032009'
p1387
(S'A.Humphries'
p1388
S'WR'
p1389
S'TB'
p1390
(lp1391
I0
aF1.8
aF6.800000000000001
aF7.0
aF5.1000000000000005
aF5.1000000000000005
aF-0.7
aF2.6
aF1.4000000000000001
aF1.7000000000000002
aI0
aF3.8000000000000003
aF4.5
aF2.5
aF13.899999999999999
aF5.1000000000000005
atp1392
sS'00-0031280'
p1393
(S'D.Carr'
p1394
S'QB'
p1395
S'OAK'
p1396
(lp1397
F22.68
aF27.200000000000003
aF7.219999999999999
aF11.719999999999999
aI0
aF8.84
aF36.18
aF14.52
aF15.7
aI0
aF15.48
aF19.82
aF17.380000000000003
aF12.439999999999998
aF21.54
aF7.9
atp1398
sS'00-0026158'
p1399
(S'J.Flacco'
p1400
S'QB'
p1401
S'BAL'
p1402
(lp1403
F8.84
aF18.58
aF-2.88
aF11.4
aF8.48
aF5.4
aF13.440000000000001
aF10.940000000000001
aF19.14
aI0
aF11.22
aF9.84
aF22.66
aF20.759999999999998
aF23.82
aF21.28
atp1404
sS'00-0033119'
p1405
(S'J.Brissett'
p1406
S'QB'
p1407
S'IND'
p1408
(lp1409
F2.04
aF8.84
aF29.759999999999998
aF11.58
aF17.96
aF15.98
aF11.1
aF19.92
aF23.52
aF19.58
aI0
aF7.4399999999999995
aF12.560000000000002
aF9.76
aF14.120000000000001
aF15.4
atp1410
sS'00-0033118'
p1411
(S'K.Drake'
p1412
S'RB'
p1413
S'MIA'
p1414
(lp1415
I0
aF6.800000000000001
aF0.2
aF1.1
aF0.0
aF3.5
aF2.6
aF3.7
aF10.4
aF15.200000000000001
aI0
aF8.7
aF20.1
aF19.3
aF17.3
aF5.7
atp1416
sS'00-0033114'
p1417
(S'M.Thomas'
p1418
S'WR'
p1419
S'LA'
p1420
(lp1421
I0
aI0
aI0
aI0
aI0
aI0
aI0
aI0
aI0
aI0
aF1.2000000000000002
aI0
aF1.5
aF0.6000000000000001
aI0
aI0
atp1422
sS'00-0033111'
p1423
(S'P.Cooper'
p1424
S'WR'
p1425
S'LA'
p1426
(lp1427
F3.5
aF5.9
aF6.700000000000001
aF12.3
aF7.4
aF20.1
aF4.8
aI0
aF6.4
aF9.3
aF7.2
aF17.799999999999997
aF9.7
aF4.4
aF18.0
aF8.8
atp1428
sS'00-0033110'
p1429
(S'T.Higbee'
p1430
S'TE'
p1431
S'LA'
p1432
(lp1433
F1.7000000000000002
aI0
aF0.4
aF4.7
aF9.8
aF0.0
aF1.3
aI0
aF6.8
aF2.2
aF0.5
aF4.800000000000001
aF0.6000000000000001
aI0
aF1.2000000000000002
aF1.5
atp1434
sS'00-0032417'
p1435
(S'P.Perkins'
p1436
S'RB'
p1437
S'NYG'
p1438
(lp1439
F2.5
aF2.2
aF3.0
aF1.9000000000000001
aI0
aI0
aI0
aI0
aI0
aI0
aI0
aI0
aF1.2000000000000002
aI0
aI0
aF1.0
atp1440
sS'00-0032553'
p1441
(S'J.Billingsley'
p1442
S'WR'
p1443
S'DET'
p1444
(lp1445
I0
aI0
aI0
aI0
aI0
aI0
aI0
aI0
aI0
aI0
aI0
aI0
aI0
aI0
aI0
aI0
atp1446
sS'00-0030287'
p1447
(S'A.Ellington'
p1448
S'RB'
p1449
S'ARI'
p1450
(lp1451
F3.5
aF2.3000000000000003
aF8.100000000000001
aF10.4
aF6.3
aI0
aI0
aI0
aF1.4000000000000001
aF9.0
aI0
aI0
aF5.2
aF2.2
aI0
aI0
atp1452
sS'00-0031431'
p1453
(S'M.Lee'
p1454
S'WR'
p1455
S'JAX'
p1456
(lp1457
F0.7000000000000001
aF8.0
aF6.7
aF1.8
aF4.9
aF10.0
aF7.2
aI0
aF13.5
aF13.5
aF4.5
aF1.3
aF14.6
aF6.5
aI0
aI0
atp1458
sS'00-0023853'
p1459
(S'M.Prater'
p1460
S'K'
p1461
S'DET'
p1462
(lp1463
I7
aI8
aI18
aI6
aI6
aI8
aI0
aI17
aI12
aI8
aI11
aI13
aI2
aI6
aI8
aI5
atp1464
sS'00-0032227'
p1465
(S'J.Heuerman'
p1466
S'TE'
p1467
S'DEN'
p1468
(lp1469
F2.0
aF1.5
aI0
aI0
aI0
aF8.4
aI0
aF1.1
aI0
aF0.4
aI0
aI0
aI0
aF0.5
aF11.4
aI0
atp1470
sS'00-0030496'
p1471
(S'L.Bell'
p1472
S'RB'
p1473
S'PIT'
p1474
(lp1475
F4.7
aF9.100000000000001
aF15.8
aF30.599999999999998
aF9.3
aF25.1
aF19.200000000000003
aF12.100000000000001
aI0
aF11.2
aF11.100000000000001
aF16.3
aF24.200000000000003
aF30.5
aF22.500000000000004
aF15.700000000000001
atp1476
sS'00-0031025'
p1477
(S'M.Campanaro'
p1478
S'WR'
p1479
S'BAL'
p1480
(lp1481
F2.5000000000000004
aF2.4000000000000004
aF1.0
aF7.1000000000000005
aF2.7
aF21.6
aF5.0
aI0
aI0
aI0
aF2.8000000000000003
aI0
aF2.8000000000000003
aF4.8
aF1.7000000000000002
aF9.0
atp1482
sS'00-0031021'
p1483
(S'J.Abbrederis'
p1484
S'WR'
p1485
S'DET'
p1486
(lp1487
I0
aI0
aI0
aI0
aF3.7
aF0.7000000000000001
aI0
aI0
aI0
aI0
aI0
aI0
aI0
aI0
aI0
aI0
atp1488
sS'00-0029682'
p1489
(S'B.Osweiler'
p1490
S'QB'
p1491
S'DEN'
p1492
(lp1493
I0
aI0
aI0
aI0
aI0
aF0.62
aI0
aI0
aF10.32
aF12.74
aF16.560000000000002
aI0
aI0
aI0
aF29.46
aF8.42
atp1494
sS'00-0031558'
p1495
(S'M.Williams'
p1496
S'TE'
p1497
S'BAL'
p1498
(lp1499
F0.5
aF2.3000000000000003
aI0
aI0
aI0
aF-1.4
aI0
aI0
aF2.9000000000000004
aI0
aF0.6000000000000001
aF1.2000000000000002
aF0.1
aI0
aF0.4
aF6.6
atp1500
sS'00-0028087'
p1501
(S'D.Lewis'
p1502
S'RB'
p1503
S'NE'
p1504
(lp1505
F5.800000000000001
aF2.5
aF6.1000000000000005
aF11.000000000000002
aF8.600000000000001
aF12.9
aF9.6
aF15.000000000000002
aI0
aF27.8
aF14.8
aF14.8
aF9.200000000000001
aF11.600000000000001
aF21.400000000000002
aF31.6
atp1506
sS'00-0028083'
p1507
(S'J.Rodgers'
p1508
S'RB'
p1509
S'TB'
p1510
(lp1511
I0
aF12.7
aF1.5
aF10.8
aF1.5
aF0.7000000000000001
aF1.1
aF-0.4
aI0
aF1.2000000000000002
aI0
aF8.0
aF4.5
aF6.0
aF6.2
aF0.2
atp1512
sS'00-0033604'
p1513
(S'K.Hogan'
p1514
S'WR'
p1515
S'IND'
p1516
(lp1517
I0
aI0
aI0
aI0
aF-0.8
aI0
aI0
aI0
aI0
aI0
aI0
aI0
aI0
aI0
aI0
aI0
atp1518
sS'00-0027732'
p1519
(S'M.Hoomanawanui'
p1520
S'TE'
p1521
S'NO'
p1522
(lp1523
I0
aF0.8
aI0
aF1.3
aI0
aF8.7
aI0
aI0
aI0
aF0.4
aI0
aI0
aF0.0
aI0
aI0
aI0
atp1524
sS'00-0026858'
p1525
(S'G.Gano'
p1526
S'K'
p1527
S'CAR'
p1528
(lp1529
I11
aI9
aI7
aI9
aI9
aI11
aI3
aI5
aI8
aI9
aI0
aI9
aI3
aI7
aI7
aI10
atp1530
sS'00-0033352'
p1531
(S'M.Clark'
p1532
S'WR'
p1533
S'GB'
p1534
(lp1535
I0
aI0
aI0
aI0
aI0
aI0
aI0
aI0
aI0
aI0
aI0
aI0
aI0
aI0
aI0
aF3.6
atp1536
sS'00-0033891'
p1537
(S'Z.Jones'
p1538
S'WR'
p1539
S'BUF'
p1540
(lp1541
F2.1
aF1.8
aI0
aF1.8
aF0.9
aI0
aF1.7000000000000002
aF3.2
aF11.3
aI0
aF6.800000000000001
aF9.3
aF2.2
aI0
aI0
aI0
atp1542
sS'00-0033893'
p1543
(S'D.Cook'
p1544
S'RB'
p1545
S'MIN'
p1546
(lp1547
F13.700000000000001
aF6.4
aF22.900000000000002
aF11.400000000000002
aI0
aI0
aI0
aI0
aI0
aI0
aI0
aI0
aI0
aI0
aI0
aI0
atp1548
sS'00-0033895'
p1549
(S'G.Everett'
p1550
S'TE'
p1551
S'LA'
p1552
(lp1553
F3.9000000000000004
aF9.5
aI0
aF0.8
aF0.8
aF6.4
aI0
aI0
aF5.7
aI0
aF0.8
aF0.9
aF6.7
aF0.6000000000000001
aI0
aI0
atp1554
sS'00-0033896'
p1555
(S'A.Shaheen'
p1556
S'TE'
p1557
S'CHI'
p1558
(lp1559
I0
aI0
aF6.2
aI0
aI0
aI0
aI0
aI0
aI0
aF3.9000000000000004
aF10.100000000000001
aF0.1
aI0
aF10.4
aI0
aI0
atp1560
sS'00-0033897'
p1561
(S'J.Mixon'
p1562
S'RB'
p1563
S'CIN'
p1564
(lp1565
F2.4
aF4.1
aF10.100000000000001
aF4.800000000000001
aF11.100000000000001
aI0
aF6.800000000000001
aF8.9
aF10.6
aF10.0
aF4.9
aF22.5
aF4.2
aI0
aI0
aF3.2
atp1566
sS'00-0033899'
p1567
(S'D.Kizer'
p1568
S'QB'
p1569
S'CLE'
p1570
(lp1571
F20.580000000000002
aF1.8800000000000008
aF26.08
aF3.7199999999999998
aF2.380000000000001
aI0
aF0.5600000000000005
aF14.96
aI0
aF24.98
aF7.359999999999999
aF20.619999999999997
aF15.2
aF23.259999999999998
aF3.34
aF4.08
atp1572
sS'00-0021206'
p1573
(S'J.McCown'
p1574
S'QB'
p1575
S'NYJ'
p1576
(lp1577
F9.48
aF19.740000000000002
aF16.66
aF4.960000000000001
aF17.46
aF24.26
aF30.46
aF22.28
aF18.900000000000002
aF14.48
aI0
aF31.080000000000002
aF33.14
aF-1.46
aI0
aI0
atp1578
sS'00-0033536'
p1579
(S'M.Williams'
p1580
S'WR'
p1581
S'LAC'
p1582
(lp1583
I0
aI0
aI0
aI0
aI0
aF1.5
aI0
aF0.7000000000000001
aI0
aF2.4000000000000004
aF3.8000000000000003
aI0
aI0
aF0.30000000000000004
aI0
aI0
atp1584
sS'00-0029597'
p1585
(S'J.Tucker'
p1586
S'K'
p1587
S'BAL'
p1588
(lp1589
I8
aI6
aI1
aI3
aI12
aI12
aI12
aI12
aI8
aI0
aI11
aI13
aI16
aI8
aI9
aI11
atp1590
sS'00-0023096'
p1591
(S'N.Novak'
p1592
S'K'
p1593
S'LAC'
p1594
(lp1595
I0
aI0
aI0
aI0
aI9
aI5
aI3
aI1
aI0
aI7
aI18
aI3
aI0
aI0
aI0
aI0
atp1596
sS'00-0031299'
p1597
(S'J.Matthews'
p1598
S'WR'
p1599
S'BUF'
p1600
(lp1601
F6.1000000000000005
aF3.0
aF6.1000000000000005
aF7.0
aI0
aI0
aF1.0
aF2.1
aF2.6000000000000005
aF1.4000000000000001
aI0
aF1.5
aF1.4000000000000001
aI0
aI0
aI0
atp1602
sS'00-0028063'
p1603
(S'T.Jones'
p1604
S'RB'
p1605
S'BUF'
p1606
(lp1607
I0
aI0
aI0
aF5.0
aI0
aI0
aF1.1
aI0
aI0
aI0
aI0
aI0
aI0
aI0
aI0
aI0
atp1608
sS'00-0019596'
p1609
(S'T.Brady'
p1610
S'QB'
p1611
S'NE'
p1612
(lp1613
F10.68
aF36.78
aF45.72
aF24.48
aF14.620000000000001
aF20.18
aF22.46
aF19.52
aI0
aF28.64
aF31.560000000000002
aF28.68
aF8.32
aF11.32
aF17.72
aF19.560000000000002
atp1614
sS'00-0027125'
p1615
(S'Z.Miller'
p1616
S'TE'
p1617
S'CHI'
p1618
(lp1619
F3.9000000000000004
aF4.2
aF1.7000000000000002
aF4.5
aF9.9
aF8.5
aF2.9000000000000004
aI0
aI0
aI0
aI0
aI0
aI0
aI0
aI0
aI0
atp1620
sS'00-0028064'
p1621
(S'B.Powell'
p1622
S'RB'
p1623
S'NYJ'
p1624
(lp1625
F3.9000000000000004
aF1.3
aF9.7
aF25.0
aF3.3000000000000003
aI0
aF8.3
aF6.1000000000000005
aF7.4
aF1.6
aI0
aF4.6000000000000005
aF11.0
aF3.5
aF10.4
aF20.5
atp1626
sS'00-0028067'
p1627
(S'J.Thomas'
p1628
S'TE'
p1629
S'MIA'
p1630
(lp1631
I0
aF2.6
aF1.6
aF2.9000000000000004
aF1.5
aF2.2
aF5.800000000000001
aF0.2
aF14.4
aF6.8
aI0
aF5.2
aF8.0
aF1.1
aF1.5
aI0
atp1632
sS'00-0032870'
p1633
(S'A.Rosas'
p1634
S'K'
p1635
S'NYG'
p1636
(lp1637
I3
aI4
aI6
aI5
aI2
aI13
aI1
aI0
aI7
aI7
aI6
aI4
aI7
aI4
aI5
aI0
atp1638
sS'00-0031051'
p1639
(S'J.Brown'
p1640
S'WR'
p1641
S'ARI'
p1642
(lp1643
F4.2
aI0
aI0
aF4.7
aF8.6
aF12.3
aF0.6000000000000001
aI0
aF5.2
aF2.7
aF1.8
aI0
aI0
aI0
aI0
aF8.8
atp1644
sS'00-0032087'
p1645
(S'J.Lambo'
p1646
S'K'
p1647
S'JAX'
p1648
(lp1649
I0
aI0
aI0
aI0
aI0
aI0
aI9
aI0
aI13
aI6
aI7
aI6
aI10
aI14
aI9
aI5
atp1650
sS'00-0032123'
p1651
(S'T.McBride'
p1652
S'WR'
p1653
S'CHI'
p1654
(lp1655
I0
aI0
aI0
aI0
aF1.8
aI0
aI0
aF9.200000000000001
aI0
aI0
aF1.4000000000000001
aF2.0
aI0
aI0
aI0
aI0
atp1656
sS'00-0031884'
p1657
(S'G.Holmes'
p1658
S'TE'
p1659
S'ARI'
p1660
(lp1661
I0
aI0
aI0
aI0
aI0
aI0
aI0
aI0
aI0
aI0
aI0
aI0
aI0
aI0
aI0
aI0
atp1662
sS'00-0033871'
p1663
(S'C.Davis'
p1664
S'WR'
p1665
S'TEN'
p1666
(lp1667
F6.9
aF0.4
aI0
aI0
aI0
aI0
aI0
aI0
aF2.8000000000000003
aF2.8000000000000007
aF2.7
aF3.9000000000000004
aF1.2000000000000002
aF2.9000000000000004
aF2.8000000000000003
aF9.1
atp1668
sS'00-0029567'
p1669
(S'N.Foles'
p1670
S'QB'
p1671
S'PHI'
p1672
(lp1673
I0
aI0
aI0
aI0
aI0
aI0
aI0
aF-0.2
aF-0.6999999999999998
aI0
aI0
aF-1.4600000000000002
aI0
aF2.58
aF33.480000000000004
aF10.52
atp1674
sS'00-0032423'
p1675
(S'T.Davis'
p1676
S'WR'
p1677
S'GB'
p1678
(lp1679
F0.0
aF0.9
aF7.0
aF0.5
aI0
aF6.3
aF5.2
aI0
aF15.4
aF9.3
aF5.700000000000001
aF6.300000000000001
aF12.3
aF13.8
aF1.5
aF9.9
atp1680
sS'00-0029033'
p1681
(S'G.Whalen'
p1682
S'WR'
p1683
S'BAL'
p1684
(lp1685
I0
aI0
aI0
aI0
aI0
aI0
aF2.3000000000000003
aF0.2
aI0
aI0
aI0
aI0
aI0
aI0
aI0
aI0
atp1686
sS'00-0033562'
p1687
(S'R.Switzer'
p1688
S'WR'
p1689
S'DAL'
p1690
(lp1691
F4.2
aF1.9000000000000001
aF6.3999999999999995
aF6.1000000000000005
aF2.4
aI0
aF0.5
aF3.2
aF0.1
aF6.200000000000001
aF14.700000000000001
aF9.8
aF14.8
aF6.7
aF3.7
aF7.7
atp1692
sS'00-0029740'
p1693
(S'I.Momah'
p1694
S'TE'
p1695
S'ARI'
p1696
(lp1697
I0
aF4.6000000000000005
aI0
aI0
aI0
aI0
aI0
aI0
aI0
aI0
aI0
aI0
aI0
aI0
aI0
aI0
atp1698
sS'00-0030279'
p1699
(S'K.Allen'
p1700
S'WR'
p1701
S'LAC'
p1702
(lp1703
F9.5
aF10.0
aF6.1000000000000005
aF13.8
aF6.7
aF4.5
aF4.1000000000000005
aF6.1000000000000005
aI0
aF5.4
aF28.200000000000003
aF23.2
aF16.5
aF11.100000000000001
aF5.4
aF6.300000000000001
atp1704
sS'00-0025430'
p1705
(S'D.Stanton'
p1706
S'QB'
p1707
S'ARI'
p1708
(lp1709
I0
aI0
aI0
aI0
aI0
aI0
aF0.8799999999999999
aI0
aF18.240000000000002
aF17.020000000000003
aI0
aI0
aI0
aI0
aI0
aF16.46
atp1710
sS'00-0031390'
p1711
(S'C.Sims III'
p1712
S'RB'
p1713
S'TB'
p1714
(lp1715
I0
aF-1.1
aF1.3
aF2.1
aF3.4000000000000004
aF4.5
aF1.5
aI0
aF1.1
aF9.0
aI0
aF2.9000000000000004
aF5.1
aF2.7
aF0.6000000000000001
aF3.2
atp1716
sS'00-0031285'
p1717
(S'D.Freeman'
p1718
S'RB'
p1719
S'ATL'
p1720
(lp1721
F9.899999999999999
aF22.0
aF19.8
aF13.8
aI0
aF7.9
aF9.0
aF6.1000000000000005
aF6.4
aF0.30000000000000004
aI0
aI0
aF8.1
aF15.1
aF25.400000000000002
aF3.6
atp1722
sS'00-0031209'
p1723
(S'S.Perry'
p1724
S'RB'
p1725
S'MIA'
p1726
(lp1727
I0
aI0
aI0
aI0
aI0
aI0
aI0
aI0
aI0
aF8.700000000000001
aI0
aI0
aF4.2
aF3.3000000000000003
aI0
aF0.30000000000000004
atp1728
sS'00-0028581'
p1729
(S'P.DiMarco'
p1730
S'RB'
p1731
S'BUF'
p1732
(lp1733
F0.5
aI0
aI0
aF-0.2
aI0
aI0
aI0
aI0
aF2.4000000000000004
aF2.1
aI0
aI0
aI0
aI0
aF0.6000000000000001
aF-0.8
atp1734
sS'00-0031203'
p1735
(S'C.Santos'
p1736
S'K'
p1737
S'KC'
p1738
(lp1739
I6
aI9
aI6
aI0
aI0
aI0
aI0
aI0
aI0
aI0
aI0
aI3
aI2
aI0
aI0
aI0
atp1740
sS'00-0030443'
p1741
(S'L.Toilolo'
p1742
S'TE'
p1743
S'ATL'
p1744
(lp1745
I0
aI0
aI0
aF2.1
aI0
aI0
aI0
aF2.0
aF0.8
aF1.0
aF9.1
aI0
aF2.5
aF0.7000000000000001
aI0
aI0
atp1746
sS'00-0032394'
p1747
(S'N.Vannett'
p1748
S'TE'
p1749
S'SEA'
p1750
(lp1751
F1.0
aI0
aI0
aI0
aF0.30000000000000004
aI0
aF1.2000000000000002
aF0.8
aI0
aF2.2
aI0
aF8.9
aF4.0
aI0
aI0
aI0
atp1752
sS'00-0030520'
p1753
(S'M.Glennon'
p1754
S'QB'
p1755
S'CHI'
p1756
(lp1757
F14.52
aF12.04
aF8.440000000000001
aF6.720000000000001
aI0
aI0
aI0
aI0
aI0
aI0
aI0
aI0
aI0
aI0
aI0
aI0
atp1758
sS'00-0030525'
p1759
(S'T.Austin'
p1760
S'WR'
p1761
S'LA'
p1762
(lp1763
F2.6
aF2.6
aF-0.5999999999999999
aF6.6000000000000005
aF8.1
aF0.0
aF4.2
aI0
aF4.300000000000001
aF0.2
aI0
aF1.6
aF0.8
aF-2.3
aF4.4
aI0
atp1764
sS'00-0030524'
p1765
(S'L.Jones'
p1766
S'QB'
p1767
S'PIT'
p1768
(lp1769
I0
aI0
aI0
aI0
aI0
aI0
aI0
aI0
aI0
aI0
aF-0.30000000000000004
aI0
aI0
aI0
aI0
aF-0.1
atp1770
sS'00-0032392'
p1771
(S'A.Hooper'
p1772
S'TE'
p1773
S'ATL'
p1774
(lp1775
F18.8
aF0.7000000000000001
aF0.9
aF5.0
aI0
aF4.800000000000001
aF0.6000000000000001
aF10.7
aF3.6
aF10.9
aF-0.1
aF3.8000000000000003
aF2.1
aF2.3000000000000003
aF1.2000000000000002
aF1.8
atp1776
sS'00-0032393'
p1777
(S'C.Prosise'
p1778
S'RB'
p1779
S'SEA'
p1780
(lp1781
F1.1
aF2.2
aF7.4
aI0
aI0
aI0
aI0
aI0
aI0
aF0.30000000000000004
aI0
aI0
aI0
aI0
aI0
aI0
atp1782
sS'00-0029697'
p1783
(S'C.Fleener'
p1784
S'TE'
p1785
S'NO'
p1786
(lp1787
F11.4
aF9.3
aF2.1
aF2.1
aI0
aI0
aF2.2
aF-0.1
aF4.6000000000000005
aI0
aF9.1
aF0.8
aI0
aI0
aI0
aI0
atp1788
sS'00-0026983'
p1789
(S'D.Heyward-Bey'
p1790
S'WR'
p1791
S'PIT'
p1792
(lp1793
I0
aI0
aI0
aF0.30000000000000004
aI0
aI0
aF4.4
aI0
aI0
aI0
aI0
aI0
aI0
aI0
aF0.30000000000000004
aI0
atp1794
sS'00-0032398'
p1795
(S'C.Moore'
p1796
S'WR'
p1797
S'BAL'
p1798
(lp1799
I0
aI0
aI0
aI0
aI0
aF4.4
aF9.1
aI0
aF1.6
aI0
aF3.5
aF8.7
aF7.9
aF19.4
aI0
aF2.9000000000000004
atp1800
sS'00-0031801'
p1801
(S'J.Leslie'
p1802
S'WR'
p1803
S'CLE'
p1804
(lp1805
I0
aI0
aF2.6
aI0
aI0
aI0
aI0
aI0
aI0
aI0
aI0
aI0
aI0
aI0
aI0
aI0
atp1806
sS'00-0026986'
p1807
(S'M.Crabtree'
p1808
S'WR'
p1809
S'OAK'
p1810
(lp1811
F8.3
aF26.0
aF0.7000000000000001
aI0
aF14.200000000000001
aF11.2
aF8.4
aF8.3
aF4.0
aI0
aF7.1000000000000005
aI0
aI0
aF8.0
aF15.9
aI0
atp1812
sS'00-0031277'
p1813
(S'B.Oliver'
p1814
S'RB'
p1815
S'LAC'
p1816
(lp1817
F1.0
aF3.1
aF3.4000000000000004
aF0.30000000000000004
aI0
aI0
aI0
aF0.30000000000000004
aI0
aI0
aI0
aI0
aI0
aI0
aI0
aF0.9
atp1818
sS'00-0033421'
p1819
(S'A.Auclair'
p1820
S'TE'
p1821
S'TB'
p1822
(lp1823
I0
aI0
aI0
aI0
aI0
aI0
aI0
aI0
aI0
aI0
aI0
aI0
aF1.1
aI0
aF1.4000000000000001
aI0
atp1824
sS'00-0028660'
p1825
(S'D.Bailey'
p1826
S'K'
p1827
S'DAL'
p1828
(lp1829
I13
aI7
aI4
aI6
aI7
aI0
aI2
aI0
aI0
aI0
aI0
aI0
aI8
aI6
aI8
aI16
atp1830
sS'00-0030089'
p1831
(S'L.Willson'
p1832
S'TE'
p1833
S'SEA'
p1834
(lp1835
I0
aF2.5
aF11.3
aF6.6
aI0
aI0
aF1.3
aI0
aF7.0
aI0
aF-0.1
aI0
aI0
aF2.8000000000000003
aF8.6
aF0.9
atp1836
sS'00-0029137'
p1837
(S'A.Jeffery'
p1838
S'WR'
p1839
S'PHI'
p1840
(lp1841
F5.800000000000001
aF15.200000000000001
aF5.6000000000000005
aF8.9
aF3.1
aF7.1000000000000005
aF3.7
aF14.2
aF20.4
aI0
aF14.7
aF11.2
aF6.1000000000000005
aF11.2
aF10.9
aI0
atp1842
sS'00-0027861'
p1843
(S'C.Spiller'
p1844
S'RB'
p1845
S'KC'
p1846
(lp1847
I0
aI0
aI0
aI0
aI0
aI0
aF0.0
aI0
aI0
aI0
aI0
aI0
aI0
aI0
aI0
aI0
atp1848
sS'00-0033763'
p1849
(S'E.Baylis'
p1850
S'TE'
p1851
S'HOU'
p1852
(lp1853
I0
aI0
aI0
aI0
aI0
aI0
aI0
aI0
aI0
aI0
aI0
aI0
aI0
aI0
aI0
aI0
atp1854
sS'00-0024334'
p1855
(S'B.Marshall'
p1856
S'WR'
p1857
S'NYG'
p1858
(lp1859
F1.0
aF1.7000000000000002
aF6.6000000000000005
aF4.6000000000000005
aF1.5
aI0
aI0
aI0
aI0
aI0
aI0
aI0
aI0
aI0
aI0
aI0
atp1860
sS'00-0024333'
p1861
(S'S.Gostkowski'
p1862
S'K'
p1863
S'NE'
p1864
(lp1865
I9
aI12
aI4
aI14
aI13
aI6
aI11
aI13
aI0
aI11
aI19
aI5
aI13
aI8
aI7
aI13
atp1866
sS'00-0032450'
p1867
(S'D.Washington'
p1868
S'RB'
p1869
S'DET'
p1870
(lp1871
F5.300000000000001
aF0.9
aI0
aI0
aI0
aI0
aI0
aF1.6
aF0.1
aF1.0
aI0
aI0
aI0
aI0
aI0
aI0
atp1872
sS'00-0031373'
p1873
(S'M.Bryant'
p1874
S'WR'
p1875
S'PIT'
p1876
(lp1877
F1.4000000000000001
aF15.8
aF3.0
aF4.800000000000001
aF3.4000000000000004
aF2.7
aF0.5
aI0
aI0
aF5.300000000000001
aF3.0
aF15.9
aF7.800000000000001
aF8.8
aF11.9
aF6.8
atp1878
sS'00-0033869'
p1879
(S'M.Trubisky'
p1880
S'QB'
p1881
S'CHI'
p1882
(lp1883
I0
aI0
aI0
aI0
aF11.32
aF11.72
aF4.58
aF9.860000000000001
aI0
aF17.880000000000003
aF16.46
aF3.08
aF11.98
aF23.34
aF12.86
aF18.119999999999997
atp1884
sS'00-0026184'
p1885
(S'M.Forte'
p1886
S'RB'
p1887
S'NYJ'
p1888
(lp1889
F3.6
aF9.100000000000001
aF2.5
aI0
aI0
aF8.100000000000001
aF8.200000000000001
aF5.2
aF21.599999999999998
aI0
aI0
aF2.6
aF15.100000000000001
aF3.4000000000000004
aF3.4000000000000004
aF0.6000000000000002
atp1890
sS'00-0031376'
p1891
(S'J.McKinnon'
p1892
S'RB'
p1893
S'MIN'
p1894
(lp1895
F14.5
aF7.700000000000001
aF2.4
aF6.1
aF25.700000000000003
aF19.9
aF5.7
aF20.2
aI0
aF4.7
aF6.000000000000001
aF5.4
aF11.200000000000001
aF5.500000000000001
aF13.8
aF5.1000000000000005
atp1896
sS'00-0031375'
p1897
(S'T.West'
p1898
S'RB'
p1899
S'BAL'
p1900
(lp1901
F14.0
aF10.5
aF0.6000000000000001
aF-0.7000000000000001
aF1.7000000000000002
aI0
aI0
aI0
aI0
aI0
aI0
aI0
aI0
aI0
aI0
aI0
atp1902
sS'00-0026189'
p1903
(S'D.Jackson'
p1904
S'WR'
p1905
S'TB'
p1906
(lp1907
I0
aF3.9000000000000004
aF14.4
aF2.0
aF10.600000000000001
aF9.8
aF7.300000000000001
aF3.7
aF3.3
aF8.200000000000001
aI0
aF6.0
aF2.4000000000000004
aF6.4
aF1.8000000000000003
aI0
atp1908
sS'00-0033537'
p1909
(S'D.Watson'
p1910
S'QB'
p1911
S'HOU'
p1912
(lp1913
F7.68
aF17.7
aF24.14
aF41.72
aF45.54
aF29.3
aI0
aF40.78
aI0
aI0
aI0
aI0
aI0
aI0
aI0
aI0
atp1914
sS'00-0032062'
p1915
(S'B.Bell'
p1916
S'TE'
p1917
S'MIN'
p1918
(lp1919
I0
aI0
aI0
aF1.2000000000000002
aI0
aI0
aI0
aI0
aI0
aI0
aI0
aI0
aI0
aF2.7
aI0
aI0
atp1920
sS'00-0029621'
p1921
(S'G.Zuerlein'
p1922
S'K'
p1923
S'LA'
p1924
(lp1925
I16
aI8
aI11
aI23
aI4
aI11
aI17
aI0
aI15
aI17
aI1
aI16
aI16
aI5
aI10
aI0
atp1926
sS'00-0031900'
p1927
(S'R.Smith'
p1928
S'RB'
p1929
S'DAL'
p1930
(lp1931
I0
aF0.8
aI0
aI0
aF1.8
aI0
aF6.6000000000000005
aI0
aI0
aF2.9000000000000004
aF3.1
aF10.8
aF8.7
aF28.0
aF9.4
aF3.3000000000000003
atp1932
sS'00-0031044'
p1933
(S'T.Niklas'
p1934
S'TE'
p1935
S'ARI'
p1936
(lp1937
I0
aF1.6
aF1.0
aI0
aI0
aF8.0
aI0
aI0
aF1.6
aF0.1
aI0
aF2.2
aI0
aF0.7000000000000001
aF4.1000000000000005
aI0
atp1938
sS'00-0026201'
p1939
(S'M.Bennett'
p1940
S'TE'
p1941
S'GB'
p1942
(lp1943
F4.3
aF4.7
aF1.2000000000000002
aF3.9000000000000004
aF5.300000000000001
aF2.2
aF1.7000000000000002
aI0
aI0
aF3.8000000000000003
aF1.5
aI0
aI0
aI0
aI0
aI0
atp1944
sS'00-0026164'
p1945
(S'C.Johnson'
p1946
S'RB'
p1947
S'ARI'
p1948
(lp1949
I0
aF4.4
aF2.1
aF6.300000000000001
aF2.9000000000000004
aI0
aI0
aI0
aI0
aI0
aI0
aI0
aI0
aI0
aI0
aI0
atp1950
sS'00-0031514'
p1951
(S'Q.Bray'
p1952
S'WR'
p1953
S'IND'
p1954
(lp1955
F0.0
aF10.200000000000001
aF3.8000000000000003
aF8.3
aF0.7000000000000001
aF15.700000000000001
aF9.2
aF3.9000000000000004
aF4.1000000000000005
aI0
aI0
aI0
aI0
aI0
aI0
aI0
atp1956
sS'00-0031511'
p1957
(S'D.White'
p1958
S'WR'
p1959
S'HOU'
p1960
(lp1961
I0
aI0
aI0
aI0
aI0
aI0
aI0
aI0
aI0
aI0
aI0
aI0
aI0
aF2.7
aI0
aI0
atp1962
sS'00-0024389'
p1963
(S'D.Walker'
p1964
S'TE'
p1965
S'TEN'
p1966
(lp1967
F7.6000000000000005
aF12.2
aF3.1
aF5.1000000000000005
aF2.5
aF1.4000000000000001
aF4.300000000000001
aI0
aF7.1000000000000005
aF6.300000000000001
aF9.200000000000001
aF12.3
aF12.3
aF4.2
aF7.7
aF3.3000000000000003
atp1968
sS'00-0032429'
p1969
(S'J.Adams'
p1970
S'TE'
p1971
S'NYG'
p1972
(lp1973
I0
aF3.8000000000000003
aI0
aI0
aF1.1
aF0.6000000000000001
aI0
aI0
aI0
aI0
aF0.6000000000000001
aI0
aI0
aI0
aI0
aF3.1
atp1974
sS'00-0029822'
p1975
(S'B.McManus'
p1976
S'K'
p1977
S'DEN'
p1978
(lp1979
I6
aI6
aI10
aI10
aI0
aI4
aI0
aI7
aI15
aI10
aI5
aI2
aI3
aI13
aI5
aI3
atp1980
sS'00-0030155'
p1981
(S'D.Harris'
p1982
S'TE'
p1983
S'KC'
p1984
(lp1985
F7.5
aI0
aI0
aI0
aF2.1
aI0
aF1.6
aI0
aI0
aI0
aI0
aF3.3000000000000003
aI0
aF2.5
aF0.7000000000000001
aF3.4000000000000004
atp1986
sS'00-0032426'
p1987
(S'A.Collins'
p1988
S'RB'
p1989
S'BAL'
p1990
(lp1991
I0
aF2.2
aF8.200000000000001
aF11.200000000000001
aF5.5
aF7.4
aF3.0
aF14.3
aF4.6
aI0
aF13.100000000000001
aF11.7
aF21.8
aF22.6
aF5.2
aF6.6000000000000005
atp1992
sS'00-0033080'
p1993
(S'S.DeValve'
p1994
S'TE'
p1995
S'CLE'
p1996
(lp1997
F4.2
aF6.1000000000000005
aF2.9000000000000004
aF0.2
aF2.4000000000000004
aF6.9
aF2.7
aF0.0
aI0
aF5.0
aF0.5
aF3.3000000000000003
aF3.3000000000000003
aF1.6
aF3.2
aF1.2000000000000002
atp1998
sS'00-0026293'
p1999
(S'M.Slater'
p2000
S'WR'
p2001
S'NE'
p2002
(lp2003
I0
aI0
aI0
aI0
aI0
aI0
aI0
aI0
aI0
aI0
aI0
aI0
aI0
aI0
aI0
aI0
atp2004
sS'00-0022921'
p2005
(S'L.Fitzgerald'
p2006
S'WR'
p2007
S'ARI'
p2008
(lp2009
F7.4
aF2.1
aF20.9
aF9.2
aF5.1000000000000005
aF17.8
aF2.9000000000000004
aI0
aF7.0
aF11.3
aF15.1
aF3.2
aF15.8
aF4.4
aF6.0
aF18.740000000000002
atp2010
sS'00-0022924'
p2011
(S'B.Roethlisberger'
p2012
S'QB'
p2013
S'PIT'
p2014
(lp2015
F19.72
aF21.520000000000003
aF14.0
aF12.540000000000001
aF2.58
aF13.88
aF20.66
aF16.48
aI0
aF21.939999999999998
aF37.28
aF38.54
aF22.0
aF32.74
aF22.240000000000002
aF20.94
atp2016
sS'00-0032839'
p2017
(S'H.Sharp'
p2018
S'WR'
p2019
S'DEN'
p2020
(lp2021
I0
aI0
aI0
aI0
aI0
aI0
aF5.5
aI0
aI0
aI0
aI0
aI0
aI0
aI0
aI0
aF6.300000000000001
atp2022
sS'00-0033288'
p2023
(S'G.Kittle'
p2024
S'TE'
p2025
S'SF'
p2026
(lp2027
F2.7
aF1.3
aF0.8
aF3.5
aF14.3
aF4.6000000000000005
aF1.6
aF2.2
aF2.7
aI0
aI0
aF1.4000000000000001
aF2.0
aF1.0
aF5.2
aF10.2
atp2028
sS'00-0028434'
p2029
(S'D.Baldwin'
p2030
S'WR'
p2031
S'SEA'
p2032
(lp2033
F6.000000000000001
aF4.4
aF16.5
aF5.5
aF3.7
aI0
aF15.200000000000001
aF5.4
aF16.8
aF9.5
aF10.0
aF2.0
aF8.4
aF13.8
aF0.6000000000000001
aF9.5
atp2034
sS'00-0033937'
p2035
(S'A.Darboh'
p2036
S'WR'
p2037
S'SEA'
p2038
(lp2039
I0
aF1.6
aI0
aF1.0
aI0
aI0
aF2.9000000000000004
aI0
aI0
aF0.30000000000000004
aI0
aI0
aI0
aI0
aF0.8
aI0
atp2040
sS'00-0033936'
p2041
(S'C.Beathard'
p2042
S'QB'
p2043
S'SF'
p2044
(lp2045
I0
aI0
aI0
aI0
aI0
aF15.200000000000003
aF14.4
aF12.68
aF17.36
aF29.02
aI0
aF8.14
aI0
aI0
aI0
aI0
atp2046
sS'00-0033933'
p2047
(S'C.Williams'
p2048
S'WR'
p2049
S'ARI'
p2050
(lp2051
I0
aF1.5
aF0.8
aI0
aI0
aI0
aI0
aI0
aI0
aI0
aI0
aF0.8
aI0
aF3.3000000000000003
aI0
aI0
atp2052
sS'00-0033280'
p2053
(S'C.McCaffrey'
p2054
S'RB'
p2055
S'CAR'
p2056
(lp2057
F7.200000000000001
aF7.4
aF12.000000000000002
aF13.200000000000001
aF11.1
aF15.9
aF6.300000000000001
aF5.2
aF15.400000000000002
aF18.0
aI0
aF11.9
aF10.9
aF5.3
aF19.6
aF5.800000000000001
atp2058
sS'00-0033932'
p2059
(S'K.Golladay'
p2060
S'WR'
p2061
S'DET'
p2062
(lp2063
F18.9
aF0.8
aF2.5
aI0
aI0
aI0
aI0
aI0
aI0
aF6.4
aF5.2
aF6.1000000000000005
aF4.4
aF2.6
aF2.9000000000000004
aF2.8000000000000003
atp2064
sS'00-0032166'
p2065
(S'S.Coates'
p2066
S'WR'
p2067
S'CLE'
p2068
(lp2069
I0
aI0
aI0
aI0
aI0
aF1.1
aI0
aF1.3
aI0
aF3.8000000000000003
aI0
aI0
aI0
aI0
aF0.8
aI0
atp2070
sS'00-0031609'
p2071
(S'A.Derby'
p2072
S'TE'
p2073
S'DEN'
p2074
(lp2075
F3.4000000000000004
aI0
aF0.5
aF13.5
aI0
aF1.0
aF4.6000000000000005
aF8.1
aF1.1
aF0.2
aI0
aI0
aI0
aI0
aI0
aF2.2
atp2076
sS'00-0032160'
p2077
(S'Ty.Williams'
p2078
S'WR'
p2079
S'LAC'
p2080
(lp2081
F5.4
aF5.4
aF1.5
aF17.5
aF2.2
aF0.7000000000000002
aF1.1
aF2.4000000000000004
aI0
aF4.9
aF1.1
aF11.8
aF0.8
aF19.200000000000003
aF3.1
aF5.0
atp2082
sS'00-0033282'
p2083
(S'C.Samuel'
p2084
S'WR'
p2085
S'CAR'
p2086
(lp2087
I0
aF0.7000000000000001
aF6.6
aI0
aF4.4
aF4.1000000000000005
aF6.3
aF4.9
aF3.7
aF9.3
aI0
aI0
aI0
aI0
aI0
aI0
atp2088
sS'00-0032602'
p2089
(S'J.McKissic'
p2090
S'RB'
p2091
S'SEA'
p2092
(lp2093
I0
aI0
aI0
aF18.5
aF3.6
aI0
aF3.3000000000000003
aF1.2000000000000002
aF2.6000000000000005
aF4.6
aF5.300000000000001
aF4.6000000000000005
aF7.4
aF3.5
aF5.800000000000001
aI0
atp2094
sS'00-0033838'
p2095
(S'T.Edmunds'
p2096
S'RB'
p2097
S'NO'
p2098
(lp2099
F2.2
aF4.3
aI0
aI0
aI0
aI0
aI0
aI0
aI0
aF10.8
aI0
aI0
aI0
aI0
aI0
aI0
atp2100
sS'00-0033839'
p2101
(S'D.Westbrook'
p2102
S'WR'
p2103
S'JAX'
p2104
(lp2105
I0
aI0
aI0
aI0
aI0
aI0
aI0
aI0
aI0
aI0
aF3.5
aF4.1000000000000005
aF7.800000000000001
aF14.1
aF4.0
aF7.4
atp2106
sS'00-0032760'
p2107
(S'J.Doctson'
p2108
S'WR'
p2109
S'WAS'
p2110
(lp2111
I0
aI0
aF11.2
aF2.7
aI0
aF7.1
aF3.9000000000000004
aF6.1
aF5.9
aF3.0
aF8.1
aF8.8
aF8.6
aF3.4000000000000004
aF0.19999999999999996
aF12.100000000000001
atp2112
sS'00-0031560'
p2113
(S'J.Strong'
p2114
S'WR'
p2115
S'HOU'
p2116
(lp2117
I0
aI0
aI0
aI0
aI0
aI0
aI0
aI0
aI0
aI0
aI0
aI0
aI0
aI0
aI0
aF9.8
atp2118
sS'00-0032765'
p2119
(S'M.Thomas'
p2120
S'WR'
p2121
S'NO'
p2122
(lp2123
F4.5
aF8.9
aF14.700000000000001
aF14.9
aI0
aF1.1
aF8.200000000000001
aF7.7
aF6.5
aF11.700000000000001
aF9.1
aF5.2
aF13.0
aF17.700000000000003
aF15.3
aF6.6000000000000005
atp2124
sS'00-0032764'
p2125
(S'D.Henry'
p2126
S'RB'
p2127
S'TEN'
p2128
(lp2129
F2.5
aF15.200000000000001
aF6.4
aF0.7000000000000001
aF0.9
aF20.5
aF2.4000000000000004
aI0
aF9.6
aF5.2
aF3.2
aF8.9
aF16.9
aF8.0
aF2.8000000000000003
aF3.1
atp2130
sS'00-0031568'
p2131
(S'B.Petty'
p2132
S'QB'
p2133
S'NYJ'
p2134
(lp2135
I0
aI0
aI0
aI0
aI0
aI0
aI0
aI0
aI0
aI0
aI0
aI0
aI0
aF1.2600000000000002
aF10.76
aF6.0600000000000005
atp2136
sS'00-0032569'
p2137
(S'W.Lutz'
p2138
S'K'
p2139
S'NO'
p2140
(lp2141
I13
aI8
aI12
aI8
aI0
aI10
aI8
aI8
aI6
aI13
aI16
aI10
aI7
aI5
aI7
aI11
atp2142
sS'00-0033879'
p2143
(S'O.Howard'
p2144
S'WR'
p2145
S'TB'
p2146
(lp2147
I0
aF1.7000000000000002
aF1.2000000000000002
aF12.3
aI0
aF1.5
aF21.8
aF1.6
aF-1.4
aI0
aI0
aF5.2
aF1.7000000000000002
aF9.4
aF9.0
aI0
atp2148
sS'00-0029319'
p2149
(S'J.Bellamy'
p2150
S'WR'
p2151
S'CHI'
p2152
(lp2153
F2.7
aF5.1000000000000005
aI0
aF3.6
aI0
aI0
aI0
aI0
aI0
aF11.7
aI0
aI0
aF0.4
aF5.2
aF7.0
aF4.9
atp2154
sS'00-0033948'
p2155
(S'J.Williams'
p2156
S'RB'
p2157
S'GB'
p2158
(lp2159
F0.9
aF1.1
aF0.6000000000000001
aF1.3
aF0.1
aI0
aI0
aI0
aF9.2
aF7.4
aF9.5
aF25.5
aF18.3
aF23.799999999999997
aF3.0
aF5.800000000000001
atp2160
sS'00-0028093'
p2161
(S'N.Paul'
p2162
S'TE'
p2163
S'WAS'
p2164
(lp2165
I0
aI0
aF-0.30000000000000004
aI0
aI0
aF-0.1
aF3.2
aI0
aI0
aI0
aF1.6
aF1.6
aF1.2000000000000002
aF3.3
aF1.1
aF2.9000000000000004
atp2166
sS'00-0033943'
p2167
(S'J.Reynolds'
p2168
S'WR'
p2169
S'LA'
p2170
(lp2171
I0
aF2.8000000000000003
aI0
aI0
aI0
aI0
aI0
aI0
aI0
aI0
aI0
aF9.7
aF0.6000000000000001
aF1.7000000000000002
aI0
aI0
atp2172
sS'00-0032112'
p2173
(S'J.Nelson'
p2174
S'WR'
p2175
S'ARI'
p2176
(lp2177
F10.3
aF18.0
aI0
aF3.4000000000000004
aF7.4
aF1.6
aF3.5
aI0
aF1.5
aF1.7000000000000002
aF1.4000000000000001
aF1.4000000000000001
aF4.2
aF2.6
aF5.300000000000001
aI0
atp2178
sS'00-0029793'
p2179
(S'B.Williams'
p2180
S'TE'
p2181
S'IND'
p2182
(lp2183
I0
aF2.0
aF0.7000000000000001
aF3.2
aF1.7000000000000002
aI0
aF0.6000000000000001
aI0
aF2.0
aI0
aI0
aI0
aF1.1
aF0.8
aI0
aI0
atp2184
sS'00-0025549'
p2185
(S'B.Celek'
p2186
S'TE'
p2187
S'PHI'
p2188
(lp2189
F1.9000000000000001
aI0
aI0
aI0
aF0.5
aI0
aF0.30000000000000004
aF1.4000000000000001
aF3.9000000000000004
aI0
aF2.8000000000000003
aI0
aF1.0
aF6.5
aI0
aF1.2000000000000002
atp2190
sS'00-0029795'
p2191
(S'B.Cunningham'
p2192
S'RB'
p2193
S'CHI'
p2194
(lp2195
F2.3000000000000003
aI0
aF2.3000000000000003
aF5.1
aF10.7
aF3.8000000000000003
aI0
aF0.0
aI0
aF4.5
aF1.8
aF0.8
aI0
aF1.4000000000000001
aF9.3
aF9.0
atp2196
sS'00-0032115'
p2197
(S'K.Clay'
p2198
S'WR'
p2199
S'BUF'
p2200
(lp2201
I0
aF0.2
aF2.8000000000000003
aI0
aF0.0
aI0
aI0
aF2.2
aF0.2
aF3.8000000000000003
aI0
aF16.200000000000003
aF1.3
aF0.7000000000000001
aF0.5
aF2.7
atp2202
sS'00-0029414'
p2203
(S'O.Charles'
p2204
S'TE'
p2205
S'KC'
p2206
(lp2207
I0
aI0
aI0
aI0
aI0
aI0
aI0
aI0
aI0
aI0
aI0
aI0
aI0
aI0
aF1.8
aF3.5
atp2208
sS'00-0029000'
p2209
(S'C.Beasley'
p2210
S'WR'
p2211
S'DAL'
p2212
(lp2213
F3.2
aF3.3000000000000003
aF0.4
aF1.7000000000000002
aF14.3
aI0
aF2.4000000000000004
aF0.8
aF14.4
aF2.3000000000000003
aF0.7000000000000001
aF1.9000000000000001
aF1.4000000000000001
aF7.800000000000001
aF1.5
aF1.2000000000000002
atp2214
sS'00-0033464'
p2215
(S'J.Chesson'
p2216
S'WR'
p2217
S'KC'
p2218
(lp2219
I0
aI0
aI0
aI0
aI0
aI0
aF2.0
aI0
aF1.0
aI0
aI0
aI0
aI0
aI0
aI0
aI0
atp2220
sS'00-0033466'
p2221
(S'I.McKenzie'
p2222
S'WR'
p2223
S'DEN'
p2224
(lp2225
F4.800000000000001
aF2.0
aF2.0
aF5.0
aI0
aF1.7000000000000002
aI0
aF0.40000000000000013
aF5.800000000000001
aF-0.2999999999999998
aI0
aI0
aF-0.30000000000000004
aI0
aI0
aF0.8
atp2226
sS'00-0029004'
p2227
(S'L.Dunbar'
p2228
S'RB'
p2229
S'LA'
p2230
(lp2231
I0
aI0
aI0
aI0
aI0
aI0
aI0
aI0
aI0
aF3.1
aI0
aI0
aI0
aI0
aI0
aI0
atp2232
sS'00-0033460'
p2233
(S'J.Ross'
p2234
S'WR'
p2235
S'CIN'
p2236
(lp2237
I0
aF-0.7999999999999998
aI0
aI0
aI0
aI0
aI0
aI0
aI0
aI0
aI0
aI0
aI0
aI0
aI0
aI0
atp2238
sS'00-0027089'
p2239
(S'L.Murphy'
p2240
S'WR'
p2241
S'SF'
p2242
(lp2243
I0
aI0
aI0
aI0
aI0
aI0
aI0
aI0
aI0
aF4.800000000000001
aI0
aF7.4
aF1.6
aF2.0
aI0
aF1.7000000000000002
atp2244
sS'00-0032250'
p2245
(S'K.Williams'
p2246
S'WR'
p2247
S'CLE'
p2248
(lp2249
I0
aI0
aF1.0
aI0
aF3.3000000000000003
aF4.1000000000000005
aI0
aI0
aI0
aI0
aI0
aI0
aI0
aI0
aI0
aI0
atp2250
sS'00-0030896'
p2251
(S'C.Catanzaro'
p2252
S'K'
p2253
S'NYJ'
p2254
(lp2255
I8
aI8
aI8
aI11
aI7
aI5
aI4
aI8
aI10
aI4
aI0
aI9
aI12
aI0
aI7
aI1
atp2256
sS'00-0029391'
p2257
(S'S.McGrath'
p2258
S'TE'
p2259
S'LAC'
p2260
(lp2261
I0
aF1.0
aI0
aI0
aI0
aI0
aI0
aI0
aI0
aI0
aF1.0
aI0
aI0
aI0
aI0
aF2.6
atp2262
sS'00-0023252'
p2263
(S'R.Gould'
p2264
S'K'
p2265
S'SF'
p2266
(lp2267
I3
aI9
aI9
aI15
aI11
aI8
aI4
aI6
aI4
aI7
aI0
aI7
aI15
aI16
aI21
aI8
atp2268
sS'00-0027944'
p2269
(S'Ju.Jones'
p2270
S'WR'
p2271
S'ATL'
p2272
(lp2273
F6.6000000000000005
aF10.8
aF9.1
aF3.0
aI0
aF7.2
aF15.9
aF7.4
aF11.8
aF5.7
aF7.1000000000000005
aF38.8
aF2.4000000000000004
aF9.8
aF5.4
aF14.9
atp2274
sS'00-0027942'
p2275
(S'A.Green'
p2276
S'WR'
p2277
S'CIN'
p2278
(lp2279
F7.4
aF6.7
aF17.1
aF12.3
aF22.900000000000002
aI0
aF4.1000000000000005
aF8.7
aF0.6000000000000001
aF17.5
aF11.0
aF6.6000000000000005
aF19.7
aF4.4
aF3.0
aF8.1
atp2280
sS'00-0031339'
p2281
(S'D.Moncrief'
p2282
S'WR'
p2283
S'IND'
p2284
(lp2285
F5.0
aF1.8
aF4.4
aF9.0
aF3.2
aF6.7
aF3.0
aI0
aF0.7000000000000001
aF12.0
aI0
aF1.6
aF3.7
aI0
aI0
aI0
atp2286
sS'00-0029384'
p2287
(S'B.Rainey'
p2288
S'RB'
p2289
S'BAL'
p2290
(lp2291
I0
aI0
aI0
aI0
aI0
aF26.200000000000003
aF10.700000000000001
aF2.6
aF4.500000000000001
aI0
aI0
aI0
aI0
aI0
aI0
aI0
atp2292
sS'00-0029388'
p2293
(S'D.Thompson'
p2294
S'WR'
p2295
S'CHI'
p2296
(lp2297
F6.2
aF16.0
aF7.800000000000001
aF7.1000000000000005
aF4.3
aI0
aF10.700000000000001
aF0.5
aF14.1
aF0.5
aF3.6
aF0.6000000000000001
aF2.1
aF3.4000000000000004
aF1.6
aF9.1
atp2298
sS'00-0031332'
p2299
(S'F.Toussaint'
p2300
S'RB'
p2301
S'PIT'
p2302
(lp2303
I0
aI0
aI0
aI0
aI0
aI0
aI0
aI0
aI0
aI0
aI0
aI0
aI0
aF2.3000000000000003
aF3.9000000000000004
aI0
atp2304
sS'00-0027948'
p2305
(S'B.Gabbert'
p2306
S'QB'
p2307
S'ARI'
p2308
(lp2309
I0
aI0
aI0
aI0
aI0
aI0
aI0
aI0
aI0
aI0
aF25.58
aF21.34
aF12.04
aF8.32
aF6.360000000000001
aI0
atp2310
sS'00-0031236'
p2311
(S'B.Cooks'
p2312
S'WR'
p2313
S'NE'
p2314
(lp2315
F8.8
aF4.300000000000001
aF27.1
aF4.2
aF8.5
aF9.3
aF12.5
aF2.6
aI0
aF7.4
aF20.9
aF15.4
aF2.2
aF3.8000000000000003
aF12.0
aF2.5
atp2316
sS'00-0031237'
p2317
(S'T.Bridgewater'
p2318
S'QB'
p2319
S'MIN'
p2320
(lp2321
I0
aI0
aI0
aI0
aI0
aI0
aI0
aI0
aI0
aI0
aI0
aI0
aI0
aI0
aF-2.3
aI0
atp2322
sS'00-0031235'
p2323
(S'O.Beckham'
p2324
S'WR'
p2325
S'NYG'
p2326
(lp2327
I0
aF3.6
aF19.9
aF9.0
aF18.5
aI0
aI0
aI0
aI0
aI0
aI0
aI0
aI0
aI0
aI0
aI0
atp2328
sS'00-0033308'
p2329
(S'M.Breida'
p2330
S'RB'
p2331
S'SF'
p2332
(lp2333
F1.1
aF3.8
aF2.9
aF2.0
aF7.1000000000000005
aF3.6
aF0.5
aF11.600000000000001
aF1.9000000000000001
aF11.8
aI0
aF2.4000000000000004
aF4.9
aF2.7
aF8.1
aF16.0
atp2334
sS'00-0033304'
p2335
(S'D.Mays'
p2336
S'RB'
p2337
S'GB'
p2338
(lp2339
I0
aI0
aI0
aI0
aI0
aI0
aI0
aI0
aI0
aI0
aF-2.1
aI0
aI0
aI0
aI0
aI0
atp2340
sS'00-0031941'
p2341
(S'J.Crowder'
p2342
S'WR'
p2343
S'WAS'
p2344
(lp2345
F-0.2999999999999998
aF6.0
aF5.5
aF-0.7000000000000001
aI0
aF3.2
aF5.5
aF13.4
aI0
aF8.100000000000001
aF7.6000000000000005
aF22.1
aF5.1
aF4.9
aF13.3
aF11.0
atp2346
sS'00-0033306'
p2347
(S'V.Bolden'
p2348
S'WR'
p2349
S'SF'
p2350
(lp2351
I0
aF7.1000000000000005
aF3.6
aF7.6000000000000005
aF5.9
aI0
aI0
aI0
aF5.9
aF4.6000000000000005
aI0
aI0
aF3.0
aF4.2
aI0
aI0
atp2352
sS'00-0033307'
p2353
(S'K.Bourne'
p2354
S'WR'
p2355
S'SF'
p2356
(lp2357
I0
aI0
aI0
aI0
aI0
aI0
aI0
aI0
aF3.9000000000000004
aF4.2
aI0
aF2.2
aI0
aF2.9000000000000004
aF8.5
aF1.2000000000000002
atp2358
sS'00-0030801'
p2359
(S'B.Coleman'
p2360
S'WR'
p2361
S'NO'
p2362
(lp2363
F1.3
aF14.200000000000001
aF7.1
aF3.1
aI0
aF2.3000000000000003
aF9.1
aF5.4
aF0.7000000000000001
aF3.0
aF0.6000000000000001
aI0
aF2.8000000000000003
aF3.2
aF-2.0
aI0
atp2364
sS'00-0032188'
p2365
(S'V.Mayle'
p2366
S'WR'
p2367
S'BAL'
p2368
(lp2369
I0
aI0
aI0
aI0
aF6.2
aI0
aF1.4000000000000001
aI0
aI0
aI0
aI0
aI0
aF2.9000000000000004
aI0
aI0
aI0
atp2370
sS'00-0029708'
p2371
(S'K.Wright'
p2372
S'WR'
p2373
S'CHI'
p2374
(lp2375
F3.4000000000000004
aF6.9
aI0
aF11.100000000000001
aF4.6000000000000005
aF3.6
aI0
aF2.3000000000000003
aI0
aF4.6000000000000005
aF2.5
aF1.5
aF2.5
aF10.700000000000001
aF8.1
aF2.7
atp2376
sS'00-0031782'
p2377
(S'E.Rogers'
p2378
S'WR'
p2379
S'PIT'
p2380
(lp2381
F4.300000000000001
aF4.2
aF-0.5
aI0
aI0
aI0
aF1.0
aI0
aI0
aF0.2
aI0
aF2.1
aF1.1
aF3.1
aF8.0
aF8.8
atp2382
sS'00-0031868'
p2383
(S'D.Byrd'
p2384
S'WR'
p2385
S'CAR'
p2386
(lp2387
I0
aI0
aF0.9
aF1.2000000000000002
aI0
aI0
aI0
aI0
aI0
aI0
aI0
aI0
aF1.2000000000000002
aF7.5
aF19.0
aF23.700000000000003
atp2388
sS'00-0032187'
p2389
(S'Da.Johnson'
p2390
S'RB'
p2391
S'ARI'
p2392
(lp2393
F7.100000000000001
aI0
aI0
aI0
aI0
aI0
aI0
aI0
aI0
aI0
aI0
aI0
aI0
aI0
aI0
aI0
atp2394
sS'00-0033127'
p2395
(S'W.Fuller V'
p2396
S'WR'
p2397
S'HOU'
p2398
(lp2399
I0
aI0
aI0
aF15.9
aF23.099999999999998
aF16.1
aI0
aF27.2
aF3.6
aF1.5
aI0
aI0
aI0
aF2.6
aF6.0
aF1.0
atp2400
sS'00-0033043'
p2401
(S'A.Traylor'
p2402
S'TE'
p2403
S'DEN'
p2404
(lp2405
I0
aI0
aI0
aI0
aI0
aI0
aI0
aI0
aI0
aI0
aF3.6
aF3.4000000000000004
aF1.6
aI0
aI0
aF1.4000000000000001
atp2406
sS'00-0030112'
p2407
(S'T.Bohanon'
p2408
S'RB'
p2409
S'JAX'
p2410
(lp2411
F6.1
aI0
aF0.8
aF1.4000000000000001
aF1.4000000000000001
aI0
aF1.4000000000000001
aI0
aF0.6000000000000001
aI0
aF0.30000000000000004
aI0
aI0
aI0
aF12.2
aI0
atp2412
sS'00-0033040'
p2413
(S'T.Hill'
p2414
S'WR'
p2415
S'KC'
p2416
(lp2417
F20.5
aF5.7
aF16.0
aF3.5
aF20.3
aF6.4
aF20.5
aF1.8000000000000003
aF13.3
aI0
aF9.3
aF5.4
aF32.9
aF9.2
aF14.9
aF10.9
atp2418
sS'00-0033045'
p2419
(S'E.Elliott'
p2420
S'RB'
p2421
S'DAL'
p2422
(lp2423
F14.0
aF2.2
aF15.4
aF25.9
aF13.200000000000001
aI0
aF39.900000000000006
aF25.4
aF15.3
aI0
aI0
aI0
aI0
aI0
aI0
aF11.8
atp2424
sS'00-0030117'
p2425
(S'K.Williams'
p2426
S'RB'
p2427
S'ARI'
p2428
(lp2429
F11.8
aF6.3
aF4.7
aF1.6
aF7.8999999999999995
aF4.2
aF8.200000000000001
aI0
aF4.300000000000001
aF6.1000000000000005
aF5.900000000000001
aF4.0
aF9.700000000000001
aF8.8
aF6.1000000000000005
aF6.500000000000001
atp2430
sS'00-0032464'
p2431
(S'K.Raymond'
p2432
S'WR'
p2433
S'NYJ'
p2434
(lp2435
F7.2
aF3.1
aI0
aI0
aI0
aI0
aI0
aI0
aI0
aI0
aF2.5
aF0.8
aF4.2
aF4.500000000000001
aF10.7
aI0
atp2436
sS'00-0030290'
p2437
(S'C.Hamilton'
p2438
S'WR'
p2439
S'HOU'
p2440
(lp2441
I0
aI0
aI0
aI0
aI0
aI0
aI0
aI0
aI0
aI0
aI0
aI0
aI0
aI0
aI0
aI0
atp2442
sS'00-0032543'
p2443
(S'A.Erickson'
p2444
S'WR'
p2445
S'CIN'
p2446
(lp2447
F2.5
aF19.7
aF5.1
aF3.3000000000000003
aF8.7
aI0
aF10.2
aF5.300000000000001
aF12.3
aF4.800000000000001
aF10.600000000000001
aF5.7
aF3.8000000000000003
aF11.800000000000002
aF6.700000000000001
aF3.0
atp2448
sS'00-0027939'
p2449
(S'C.Newton'
p2450
S'QB'
p2451
S'CAR'
p2452
(lp2453
F17.14
aF11.82
aF8.28
aF39.04
aF32.2
aF22.66
aF7.4399999999999995
aF14.560000000000002
aF20.08
aF43.66
aI0
aF17.52
aF24.42
aF16.48
aF39.480000000000004
aF15.600000000000001
atp2454
sS'00-0031344'
p2455
(S'C.Latimer'
p2456
S'WR'
p2457
S'DEN'
p2458
(lp2459
F3.6
aF4.7
aF8.1
aI0
aI0
aI0
aI0
aF6.300000000000001
aF5.1000000000000005
aF2.8000000000000003
aF2.1
aF10.8
aF0.5
aF3.7
aF14.0
aI0
atp2460
sS'00-0031345'
p2461
(S'J.Garoppolo'
p2462
S'QB'
p2463
S'SF'
p2464
(lp2465
I0
aI0
aI0
aI0
aI0
aI0
aI0
aI0
aI0
aI0
aI0
aF7.12
aF10.520000000000001
aF17.06
aF20.64
aF25.98
atp2466
sS'00-0032048'
p2467
(S'M.Brown'
p2468
S'RB'
p2469
S'WAS'
p2470
(lp2471
I0
aI0
aF2.7
aI0
aI0
aF1.3
aI0
aI0
aI0
aI0
aI0
aI0
aI0
aF1.7000000000000002
aI0
aI0
atp2472
sS'00-0033006'
p2473
(S'J.Mickens'
p2474
S'WR'
p2475
S'JAX'
p2476
(lp2477
I0
aI0
aI0
aI0
aI0
aI0
aI0
aI0
aF14.200000000000001
aF4.1
aF3.8000000000000003
aF-0.5999999999999999
aI0
aF9.2
aF21.900000000000002
aF0.5
atp2478
sS'00-0026019'
p2479
(S'D.Woodhead'
p2480
S'RB'
p2481
S'BAL'
p2482
(lp2483
F3.7
aI0
aI0
aI0
aI0
aI0
aI0
aI0
aI0
aI0
aF2.3000000000000003
aF4.5
aF2.3000000000000003
aF3.6000000000000005
aF3.2
aF4.1000000000000005
atp2484
sS'00-0033104'
p2485
(S'C.Kessler'
p2486
S'QB'
p2487
S'CLE'
p2488
(lp2489
I0
aI0
aI0
aI0
aI0
aI0
aF2.74
aI0
aI0
aF0.2
aI0
aF0.0
aI0
aI0
aI0
aI0
atp2490
sS'00-0032362'
p2491
(S'M.Harris'
p2492
S'WR'
p2493
S'WAS'
p2494
(lp2495
I0
aI0
aI0
aI0
aI0
aI0
aI0
aI0
aI0
aF13.4
aI0
aF1.2000000000000002
aF1.3
aI0
aF3.4000000000000004
aI0
atp2496
sS'00-0032725'
p2497
(S'S.Anderson'
p2498
S'TE'
p2499
S'HOU'
p2500
(lp2501
F1.4000000000000001
aI0
aF1.4000000000000001
aF2.8000000000000003
aF6.300000000000001
aF1.7000000000000002
aI0
aF1.1
aF4.4
aF3.0
aF2.2
aI0
aF13.9
aF1.6
aI0
aI0
atp2502
sS'00-0032724'
p2503
(S'B.Treggs'
p2504
S'WR'
p2505
S'CLE'
p2506
(lp2507
I0
aI0
aI0
aI0
aF2.8000000000000003
aF2.0
aF3.8000000000000003
aF0.30000000000000027
aI0
aI0
aI0
aI0
aI0
aI0
aI0
aI0
atp2508
sS'00-0032726'
p2509
(S'K.Fairbairn'
p2510
S'K'
p2511
S'HOU'
p2512
(lp2513
I1
aI7
aI15
aI17
aI2
aI5
aI0
aI8
aI2
aI1
aI7
aI10
aI7
aI6
aI1
aI0
atp2514
sS'00-0027685'
p2515
(S'E.Sanders'
p2516
S'WR'
p2517
S'DEN'
p2518
(lp2519
F2.6
aF18.2
aF7.5
aF2.7
aI0
aF7.6000000000000005
aI0
aI0
aF3.0
aF13.700000000000001
aF1.3
aF1.2000000000000002
aF1.1
aF1.6
aF6.800000000000001
aI0
atp2520
sS'00-0030068'
p2521
(S'M.Goodwin'
p2522
S'WR'
p2523
S'SF'
p2524
(lp2525
F2.1
aF2.6
aF6.2
aF1.8
aF11.600000000000001
aF3.2
aF8.0
aI0
aF6.800000000000001
aF16.1
aI0
aF7.800000000000001
aF9.9
aF10.600000000000001
aF12.4
aF3.7
atp2526
sS'00-0027681'
p2527
(S'B.LaFell'
p2528
S'WR'
p2529
S'CIN'
p2530
(lp2531
F2.4000000000000004
aF3.0
aF0.5
aF1.7000000000000002
aF3.2
aI0
aF8.8
aF4.4
aF2.8000000000000003
aF15.5
aF3.7
aF3.3000000000000003
aF5.5
aF8.4
aF5.300000000000001
aF0.8
atp2532
sS'00-0030743'
p2533
(S'B.Reedy'
p2534
S'WR'
p2535
S'TB'
p2536
(lp2537
I0
aF1.7000000000000002
aF8.8
aF5.300000000000001
aF4.5
aF1.4
aF1.0
aF3.6000000000000005
aF1.5
aF4.800000000000001
aI0
aI0
aF1.1
aF2.1
aI0
aI0
atp2538
sS'00-0033633'
p2539
(S'T.Gentry'
p2540
S'WR'
p2541
S'CHI'
p2542
(lp2543
I0
aF2.7
aI0
aI0
aI0
aI0
aF0.8
aI0
aI0
aI0
aI0
aI0
aI0
aI0
aI0
aI0
atp2544
sS'00-0030061'
p2545
(S'Z.Ertz'
p2546
S'TE'
p2547
S'PHI'
p2548
(lp2549
F9.3
aF9.700000000000001
aF9.5
aF8.1
aF12.100000000000001
aF13.8
aF14.9
aF9.4
aI0
aI0
aF0.8
aF16.3
aF2.4000000000000004
aI0
aF11.600000000000001
aF8.1
atp2550
sS'00-0033885'
p2551
(S'D.Njoku'
p2552
S'TE'
p2553
S'CLE'
p2554
(lp2555
F2.0
aF8.7
aF7.2
aF1.1
aF10.9
aF0.0
aF5.800000000000001
aF1.9000000000000001
aI0
aF0.30000000000000004
aF1.3
aF4.7
aF13.4
aF0.30000000000000004
aI0
aF1.3
atp2556
sS'00-0032375'
p2557
(S'J.Kerridge'
p2558
S'RB'
p2559
S'GB'
p2560
(lp2561
I0
aI0
aI0
aI0
aI0
aI0
aI0
aI0
aI0
aI0
aF0.30000000000000004
aI0
aI0
aI0
aI0
aI0
atp2562
sS'00-0033881'
p2563
(S'E.Engram'
p2564
S'TE'
p2565
S'NYG'
p2566
(lp2567
F4.4
aF10.9
aF4.5
aF6.2
aI0
aF14.200000000000001
aF12.0
aI0
aF13.0
aF9.1
aF0.9
aF1.8
aF15.9
aF5.4
aF10.100000000000001
aF1.2000000000000002
atp2568
sS'00-0023482'
p2569
(S'M.Nugent'
p2570
S'K'
p2571
S'DAL'
p2572
(lp2573
I0
aI0
aI0
aI0
aI0
aI0
aI0
aI15
aI4
aI1
aI9
aI0
aI0
aI9
aI4
aI2
atp2574
sS'00-0028114'
p2575
(S'D.Harris'
p2576
S'WR'
p2577
S'NYG'
p2578
(lp2579
F4.3
aF3.0
aF4.1000000000000005
aI0
aF12.200000000000001
aI0
aI0
aI0
aI0
aI0
aI0
aI0
aI0
aI0
aI0
aI0
atp2580
sS'00-0027057'
p2581
(S'B.Tate'
p2582
S'WR'
p2583
S'BUF'
p2584
(lp2585
F5.800000000000001
aI0
aF6.1000000000000005
aI0
aF14.3
aI0
aF4.9
aF4.1000000000000005
aI0
aF6.300000000000001
aF15.4
aF6.1000000000000005
aF6.800000000000001
aF5.2
aF6.1
aF3.6
atp2586
sS'00-0028116'
p2587
(S'A.Robinson'
p2588
S'WR'
p2589
S'SF'
p2590
(lp2591
F0.7000000000000001
aI0
aF2.3000000000000003
aF5.2
aF0.5
aF12.600000000000001
aF1.5
aI0
aF1.8
aF1.2000000000000002
aI0
aF0.8
aI0
aF2.7
aF0.30000000000000004
aF1.2000000000000002
atp2592
sS'00-0029580'
p2593
(S'R.Matthews'
p2594
S'WR'
p2595
S'TEN'
p2596
(lp2597
F7.1000000000000005
aF4.3
aF14.700000000000001
aF4.9
aF3.1000000000000005
aF6.9
aF4.0
aI0
aF13.0
aF5.0
aF17.3
aI0
aI0
aF1.9000000000000001
aF15.5
aF4.800000000000001
atp2598
sS'00-0028112'
p2599
(S'C.Clay'
p2600
S'TE'
p2601
S'BUF'
p2602
(lp2603
F11.3
aF2.3000000000000003
aF9.9
aF11.200000000000001
aF3.1
aI0
aI0
aI0
aI0
aF1.3
aF2.7
aF6.0
aF2.0
aF1.1
aF6.800000000000001
aF3.7
atp2604
sS'00-0031166'
p2605
(S'S.Roberts'
p2606
S'WR'
p2607
S'OAK'
p2608
(lp2609
F7.9
aI0
aF0.0
aF4.9
aF3.4000000000000004
aF3.5
aF1.5
aI0
aF2.8000000000000003
aI0
aF1.6
aF2.6
aF4.6000000000000005
aF2.4000000000000004
aF5.2
aF2.3000000000000003
atp2610
sS'00-0028118'
p2611
(S'T.Taylor'
p2612
S'QB'
p2613
S'BUF'
p2614
(lp2615
F22.76
aF10.5
aF21.82
aF14.48
aF10.940000000000001
aI0
aF22.020000000000003
aF18.700000000000003
aF30.9
aF2.9400000000000004
aF20.12
aF16.02
aF3.8000000000000007
aI0
aF25.16
aF12.84
atp2616
sS'00-0031288'
p2617
(S'A.McCarron'
p2618
S'QB'
p2619
S'CIN'
p2620
(lp2621
I0
aI0
aI0
aI0
aI0
aI0
aI0
aI0
aI0
aI0
aI0
aI0
aI0
aF1.8800000000000001
aF0.76
aI0
atp2622
sS'00-0033906'
p2623
(S'A.Kamara'
p2624
g1077
S'NO'
p2625
(lp2626
F6.4
aF12.5
aF10.2
aF17.900000000000002
aI0
aF8.7
aF10.7
aF13.600000000000001
aF25.200000000000003
aF19.8
aF19.6
aF30.800000000000004
aF24.6
aF2.7
aF14.9
aF16.200000000000003
atp2627
sS'00-0026901'
p2628
(S'M.Wallace'
p2629
S'WR'
p2630
S'BAL'
p2631
(lp2632
F0.8
aF0.7000000000000001
aF1.0
aF11.5
aF13.3
aF3.0
aF0.9
aI0
aF7.9
aI0
aF11.600000000000001
aF4.800000000000001
aF11.600000000000001
aF7.2
aF8.9
aF6.0
atp2633
sS'00-0031045'
p2634
(S'C.Hyde'
p2635
S'RB'
p2636
S'SF'
p2637
(lp2638
F7.7
aF14.3
aF21.4
aF9.5
aF1.8000000000000003
aF19.5
aF8.8
aF4.7
aF12.5
aF10.4
aI0
aF6.800000000000001
aF6.6000000000000005
aF13.8
aF3.9000000000000004
aF13.3
atp2639
sS'00-0025944'
p2640
(S'S.Hauschka'
p2641
S'K'
p2642
S'BUF'
p2643
(lp2644
I3
aI3
aI18
aI15
aI10
aI0
aI14
aI10
aI3
aI4
aI8
aI12
aI3
aI1
aI6
aI10
atp2645
sS'00-0032156'
p2646
(S'T.Siemian'
p2647
S'QB'
p2648
S'DEN'
p2649
(lp2650
F26.66
aF30.64
aF7.559999999999999
aF13.26
aI0
aF17.94
aF5.68
aF9.92
aI0
aI0
aI0
aF18.86
aF3.5999999999999996
aF15.3
aF0.6800000000000002
aI0
atp2651
sS'00-0031731'
p2652
(S'C.Grant'
p2653
S'RB'
p2654
S'JAX'
p2655
(lp2656
I0
aF8.700000000000001
aF9.3
aF2.4
aI0
aI0
aF3.6000000000000005
aI0
aF5.300000000000001
aF16.700000000000003
aI0
aF6.800000000000001
aF4.6000000000000005
aF1.7000000000000002
aF17.3
aF4.6000000000000005
atp2657
sS'00-0033862'
p2658
(S'Z.Gonzalez'
p2659
S'K'
p2660
S'CLE'
p2661
(lp2662
I4
aI4
aI4
aI1
aI2
aI5
aI11
aI4
aI0
aI6
aI1
aI10
aI4
aI3
aI4
aI3
atp2663
sS'00-0033908'
p2664
(S'C.Kupp'
p2665
S'WR'
p2666
S'LA'
p2667
(lp2668
F13.600000000000001
aF3.3000000000000003
aF1.7000000000000002
aF12.0
aF4.4
aF3.5
aF11.100000000000001
aI0
aF5.4
aF4.7
aF4.4
aF11.600000000000001
aF6.800000000000001
aF17.8
aF2.1
aF12.5
atp2669
sS'00-0032098'
p2670
(S'D.Brown'
p2671
S'TE'
p2672
S'CHI'
p2673
(lp2674
I0
aI0
aI0
aI0
aI0
aI0
aI0
aF0.9
aI0
aF2.3000000000000003
aF2.3000000000000003
aF2.0
aF1.3
aF0.9
aF3.2
aI0
atp2675
sS'00-0032650'
p2676
(S'R.Malleck'
p2677
S'TE'
p2678
S'HOU'
p2679
(lp2680
I0
aI0
aI0
aI0
aI0
aI0
aI0
aI0
aI0
aI0
aI0
aI0
aI0
aI0
aI0
aF0.30000000000000004
atp2681
sS'00-0032656'
p2682
(S'D.Powe'
p2683
S'WR'
p2684
S'NYG'
p2685
(lp2686
I0
aI0
aI0
aI0
aI0
aI0
aI0
aI0
aI0
aI0
aI0
aI0
aI0
aF1.3
aI0
aI0
atp2687
sS'00-0032659'
p2688
(S'R.Lewis'
p2689
S'WR'
p2690
S'NYG'
p2691
(lp2692
F5.4
aF1.3
aF0.6000000000000001
aI0
aF8.9
aF1.5
aF1.2000000000000002
aI0
aF0.4
aF9.3
aF5.5
aF2.6
aF0.9
aF4.6000000000000005
aF7.4
aF4.0
atp2693
sS'00-0032791'
p2694
(S'J.Grant'
p2695
S'WR'
p2696
S'MIA'
p2697
(lp2698
I0
aF2.1
aF4.0
aF4.5
aF6.200000000000001
aF1.2000000000000002
aF4.7
aF0.1
aF5.2
aI0
aI0
aF9.700000000000001
aF10.0
aF11.600000000000001
aF9.6
aF19.6
atp2699
sS'00-0033702'
p2700
(S'Y.Koo'
p2701
S'K'
p2702
S'LAC'
p2703
(lp2704
I3
aI5
aI4
aI6
aI0
aI0
aI0
aI0
aI0
aI0
aI0
aI0
aI0
aI0
aI0
aI0
atp2705
sS'00-0032794'
p2706
(S'D.Vitale'
p2707
S'RB'
p2708
S'CLE'
p2709
(lp2710
I0
aI0
aI0
aI0
aI0
aF0.7000000000000001
aF1.1
aI0
aI0
aI0
aF1.8
aI0
aI0
aF0.1
aI0
aI0
atp2711
sS'00-0032795'
p2712
(S'C.Core'
p2713
S'WR'
p2714
S'CIN'
p2715
(lp2716
I0
aI0
aI0
aI0
aI0
aI0
aI0
aI0
aI0
aI0
aI0
aI0
aI0
aI0
aI0
aI0
atp2717
sS'00-0030526'
p2718
(S'E.Manuel'
p2719
S'QB'
p2720
S'OAK'
p2721
(lp2722
I0
aI0
aI0
aF2.24
aF13.86
aI0
aI0
aI0
aI0
aI0
aI0
aI0
aI0
aI0
aI0
aI0
atp2723
sS'00-0032980'
p2724
(S'M.Johnson'
p2725
S'WR'
p2726
S'PHI'
p2727
(lp2728
I0
aI0
aI0
aI0
aF0.6000000000000001
aF1.6
aI0
aI0
aI0
aI0
aI0
aI0
aI0
aI0
aI0
aI0
atp2729
sS'00-0029731'
p2730
(S'F.Whittaker'
p2731
S'RB'
p2732
S'CAR'
p2733
(lp2734
F0.1
aI0
aF1.2000000000000002
aF9.4
aI0
aF-0.30000000000000004
aI0
aI0
aI0
aI0
aI0
aF4.9
aF4.2
aI0
aF0.30000000000000004
aF2.8000000000000003
atp2735
sS'00-0029738'
p2736
(S'D.Fells'
p2737
S'TE'
p2738
S'DET'
p2739
(lp2740
I0
aF0.30000000000000004
aF0.8
aF4.0
aF14.4
aF8.6
aI0
aF1.2000000000000002
aF1.0
aI0
aF0.9
aI0
aF1.0
aF2.3000000000000003
aF1.0
aI0
atp2741
sS'00-0030456'
p2742
(S'G.Bernard'
p2743
S'RB'
p2744
S'CIN'
p2745
(lp2746
F7.9
aF2.6
aF9.899999999999999
aF14.600000000000001
aF3.2
aI0
aF0.7000000000000001
aF0.5
aF-0.6
aF4.800000000000001
aF0.4
aF2.7
aF9.6
aF13.0
aF10.3
aF22.8
atp2747
sS'00-0028595'
p2748
(S'S.Tolzien'
p2749
S'QB'
p2750
S'IND'
p2751
(lp2752
F1.3200000000000003
aI0
aI0
aI0
aI0
aI0
aI0
aI0
aI0
aI0
aI0
aI0
aI0
aI0
aI0
aI0
atp2753
sS'00-0033526'
p2754
(S'S.Perine'
p2755
S'RB'
p2756
S'WAS'
p2757
(lp2758
I0
aF6.7
aF3.5000000000000004
aF2.7
aI0
aF10.700000000000001
aI0
aI0
aF2.9
aF8.8
aF18.6
aF13.0
aF6.9
aF5.2
aF6.6000000000000005
aF5.4
atp2759
sS'00-0032385'
p2760
(S'S.Shepard'
p2761
S'WR'
p2762
S'NYG'
p2763
(lp2764
F5.0
aF3.0000000000000004
aF19.3
aF5.4
aF0.9
aI0
aI0
aI0
aF7.0
aF14.200000000000001
aI0
aI0
aF5.6000000000000005
aF0.7000000000000001
aF19.9
aF4.5
atp2765
sS'00-0028986'
p2766
(S'C.Keenum'
p2767
S'QB'
p2768
S'MIN'
p2769
(lp2770
I0
aF6.68
aF34.56
aF8.76
aF13.8
aF15.060000000000002
aF6.42
aF21.52
aI0
aF32.06
aF19.200000000000003
aF31.28
aF20.98
aF23.200000000000003
aF23.439999999999998
aF11.36
atp2771
sS'00-0028987'
p2772
(S'P.Supernaw'
p2773
S'TE'
p2774
S'TEN'
p2775
(lp2776
I0
aI0
aF0.30000000000000004
aI0
aF7.6
aI0
aI0
aI0
aI0
aI0
aI0
aI0
aF2.0
aI0
aI0
aI0
atp2777
sS'00-0030516'
p2778
(S'B.Butler'
p2779
S'WR'
p2780
S'DAL'
p2781
(lp2782
F3.0
aF1.8
aF15.0
aF7.2
aF5.7
aI0
aI0
aI0
aF0.6000000000000001
aF3.0
aF1.9000000000000001
aF0.5
aI0
aI0
aI0
aI0
atp2783
sS'00-0033266'
p2784
(S'J.Natson'
p2785
S'WR'
p2786
S'NYJ'
p2787
(lp2788
I0
aI0
aI0
aI0
aI0
aI0
aI0
aI0
aI0
aF5.2
aI0
aF5.800000000000001
aF4.2
aF2.6
aF14.000000000000002
aF3.0
atp2789
sS'00-0024243'
p2790
(S'M.Lewis'
p2791
S'TE'
p2792
S'JAX'
p2793
(lp2794
I0
aI0
aF24.2
aI0
aF1.4000000000000001
aI0
aF8.9
aI0
aF4.9
aF2.9000000000000004
aF8.6
aF1.0
aF6.6000000000000005
aI0
aF1.8
aF2.2
atp2795
sS'00-0030513'
p2796
(S'L.Murray'
p2797
S'RB'
p2798
S'MIN'
p2799
(lp2800
F0.6000000000000001
aF0.6000000000000001
aF0.5
aF2.9000000000000004
aF4.300000000000001
aF3.7
aF17.3
aF4.7
aI0
aF12.8
aF21.6
aF14.4
aF9.700000000000001
aF2.0
aF16.400000000000002
aF7.5
atp2801
sS'00-0026625'
p2802
(S'B.Hoyer'
p2803
S'QB'
p2804
S'SF'
p2805
(lp2806
F3.2199999999999998
aF1.96
aF30.18
aF7.66
aF26.12
aF1.36
aI0
aI0
aI0
aF1.48
aI0
aI0
aF-0.2
aI0
aI0
aF-0.1
atp2807
sS'00-0026995'
p2808
(S'J.Maclin'
p2809
S'WR'
p2810
S'BAL'
p2811
(lp2812
F11.600000000000001
aF9.1
aF0.8
aF2.1
aF4.3
aI0
aI0
aF11.3
aF9.8
aI0
aF3.4000000000000004
aF0.6000000000000001
aF4.1000000000000005
aF2.7
aF2.2
aI0
atp2813
sS'00-0033555'
p2814
(S'M.Hollins'
p2815
S'WR'
p2816
S'PHI'
p2817
(lp2818
I0
aF3.2
aI0
aI0
aI0
aF3.8000000000000003
aF12.4
aF3.0
aF0.8
aI0
aF0.7000000000000001
aF1.2000000000000002
aF1.0
aI0
aI0
aI0
atp2819
sS'00-0031112'
p2820
(S'T.Coons'
p2821
S'K'
p2822
S'LAC'
p2823
(lp2824
I0
aI0
aI0
aI0
aI0
aI0
aI0
aI0
aI0
aI0
aI0
aI0
aI13
aI12
aI1
aI0
atp2825
sS'00-0033556'
p2826
(S'T.Cohen'
p2827
S'RB'
p2828
S'CHI'
p2829
(lp2830
F21.8
aF5.8
aF10.200000000000001
aF5.500000000000001
aF5.1000000000000005
aF19.84
aF8.2
aF11.299999999999999
aI0
aF11.4
aF25.1
aF6.8
aF17.200000000000003
aF13.100000000000001
aF8.1
aF4.800000000000001
atp2831
sS'00-0033553'
p2832
(S'J.Conner'
p2833
S'RB'
p2834
S'PIT'
p2835
(lp2836
F1.1
aF0.9
aI0
aF2.6
aF0.9
aF1.4000000000000001
aF1.9000000000000001
aF0.1
aI0
aF1.2000000000000002
aF1.2000000000000002
aI0
aF1.2000000000000002
aF0.6000000000000001
aF1.3
aI0
atp2837
sS'00-0032209'
p2838
(S'T.Yeldon'
p2839
S'RB'
p2840
S'JAX'
p2841
(lp2842
I0
aI0
aI0
aI0
aI0
aI0
aF19.700000000000003
aI0
aF3.2000000000000006
aF5.0
aF2.0
aF5.2
aF2.5
aF0.9
aF5.2
aF13.7
atp2843
sS'00-0028121'
p2844
(S'J.Todman'
p2845
S'RB'
p2846
S'HOU'
p2847
(lp2848
I0
aI0
aF2.3000000000000003
aI0
aI0
aI0
aI0
aI0
aI0
aI0
aI0
aF2.0
aI0
aI0
aI0
aF4.1000000000000005
atp2849
sS'00-0033559'
p2850
(S'M.Roberts'
p2851
S'TE'
p2852
S'DET'
p2853
(lp2854
I0
aI0
aI0
aF1.5
aI0
aI0
aI0
aI0
aI0
aI0
aI0
aI0
aF2.3000000000000003
aF0.8
aI0
aI0
atp2855
sS'00-0030098'
p2856
(S'D.Hopkins'
p2857
S'K'
p2858
S'WAS'
p2859
(lp2860
I5
aI9
aI9
aI8
aI0
aI8
aI0
aI0
aI0
aI0
aI0
aI0
aI0
aI0
aI8
aI9
atp2861
sS'00-0029640'
p2862
(S'B.Quick'
p2863
S'WR'
p2864
S'WAS'
p2865
(lp2866
F1.1
aI0
aI0
aI0
aI0
aI0
aI0
aI0
aF4.9
aI0
aI0
aI0
aI0
aF0.7000000000000001
aI0
aF0.9
atp2867
sS'00-0030091'
p2868
(S'T.King'
p2869
S'WR'
p2870
S'NYG'
p2871
(lp2872
I0
aI0
aI0
aI0
aI0
aF0.7000000000000001
aF-0.7000000000000001
aI0
aF9.3
aF3.3000000000000003
aF4.800000000000001
aF3.6
aF2.3000000000000003
aI0
aF19.0
aI0
atp2873
sS'00-0027796'
p2874
(S'J.Webb'
p2875
S'QB'
p2876
S'BUF'
p2877
(lp2878
I0
aI0
aI0
aI0
aI0
aI0
aI0
aI0
aI0
aI0
aI0
aI0
aF2.7
aF2.1000000000000005
aI0
aI0
atp2879
sS'00-0027874'
p2880
(S'De.Thomas'
p2881
S'WR'
p2882
S'DEN'
p2883
(lp2884
F6.7
aF7.1000000000000005
aF9.8
aF1.1
aI0
aF11.3
aF0.9
aF6.6000000000000005
aF13.0
aF10.4
aF12.4
aF1.8
aF2.7
aF15.3
aF6.9
aF5.2
atp2885
sS'00-0027873'
p2886
(S'J.Gresham'
p2887
S'TE'
p2888
S'ARI'
p2889
(lp2890
F1.5
aI0
aF4.7
aF1.2000000000000002
aF1.6
aF3.2
aF1.8
aI0
aF8.3
aF12.4
aF1.0
aF1.3
aF1.7000000000000002
aF2.7
aI0
aF0.4
atp2891
sS'00-0032881'
p2892
(S'T.Lewis'
p2893
S'WR'
p2894
S'NO'
p2895
(lp2896
F5.2
aF1.6
aF2.3
aF0.1
aI0
aI0
aF5.7
aF1.9000000000000001
aF2.4000000000000004
aI0
aF10.0
aI0
aF0.7
aF21.1
aF6.6
aF4.3
atp2897
sS'00-0032935'
p2898
(S'J.Holton'
p2899
S'WR'
p2900
S'OAK'
p2901
(lp2902
I0
aI0
aI0
aF12.4
aI0
aI0
aI0
aI0
aF10.4
aI0
aI0
aF5.300000000000001
aF7.9
aF-0.19999999999999996
aI0
aI0
atp2903
sS'00-0032937'
p2904
(S'M.McCaffrey'
p2905
S'WR'
p2906
S'JAX'
p2907
(lp2908
I0
aI0
aI0
aI0
aF0.4
aF0.0
aI0
aI0
aI0
aI0
aI0
aI0
aI0
aI0
aI0
aI0
atp2909
sS'00-0023436'
p2910
(S'A.Smith'
p2911
S'QB'
p2912
S'KC'
p2913
(lp2914
F39.02
aF18.14
aF19.1
aF29.32
aF32.86
aF17.14
aF31.68
aF15.38
aF22.42
aI0
aF7.900000000000002
aF15.46
aF45.64
aF11.120000000000001
aF22.54
aF19.46
atp2915
sS'00-0033009'
p2916
(S'T.Boyd'
p2917
S'WR'
p2918
S'CIN'
p2919
(lp2920
F1.1
aI0
aF1.1
aF1.5
aF0.6000000000000001
aI0
aI0
aI0
aI0
aI0
aF0.5
aF7.7
aF1.5
aF1.5
aI0
aF3.9000000000000004
atp2921
sS'00-0026197'
p2922
(S'C.Henne'
p2923
S'QB'
p2924
S'JAX'
p2925
(lp2926
I0
aI0
aF-0.30000000000000004
aI0
aI0
aI0
aI0
aI0
aI0
aI0
aI0
aI0
aI0
aI0
aF-0.2
aI0
atp2927
sS'00-0031302'
p2928
(S'C.Fiedorowicz'
p2929
S'TE'
p2930
S'HOU'
p2931
(lp2932
F4.6000000000000005
aI0
aI0
aI0
aI0
aI0
aI0
aI0
aI0
aF1.0
aF1.8
aF3.7
aF1.6
aI0
aI0
aI0
atp2933
sS'00-0030390'
p2934
(S'C.Sturgis'
p2935
S'K'
p2936
S'PHI'
p2937
(lp2938
I12
aI0
aI0
aI0
aI0
aI0
aI0
aI0
aI0
aI0
aI0
aI0
aI0
aI0
aI0
aI0
atp2939
sS'00-0031301'
p2940
(S'J.Hill'
p2941
S'RB'
p2942
S'CIN'
p2943
(lp2944
F2.4
aF1.9000000000000001
aF2.9000000000000004
aF2.6
aF1.6
aI0
aF0.7000000000000001
aF1.1
aI0
aI0
aI0
aI0
aI0
aI0
aI0
aI0
atp2945
sS'00-0031260'
p2946
(S'L.Thomas'
p2947
S'TE'
p2948
S'BUF'
p2949
(lp2950
I0
aI0
aI0
aI0
aF0.30000000000000004
aI0
aF8.2
aF0.7000000000000001
aF2.5
aI0
aI0
aI0
aF1.0
aI0
aI0
aI0
atp2951
sS'00-0030850'
p2952
(S'C.Parkey'
p2953
S'K'
p2954
S'MIA'
p2955
(lp2956
I0
aI15
aI0
aI0
aI4
aI8
aI7
aI0
aI4
aI3
aI0
aI5
aI7
aI9
aI10
aI7
atp2957
sS'00-0020531'
p2958
(S'D.Brees'
p2959
S'QB'
p2960
S'NO'
p2961
(lp2962
F17.64
aF26.240000000000002
aF26.8
aF23.020000000000003
aI0
aF15.54
aF21.14
aF11.760000000000002
aF22.72
aF13.959999999999999
aF25.6
aF16.34
aF16.46
aF21.04
aF21.3
aF13.16
atp2963
sS'00-0029421'
p2964
(S'R.Bullock'
p2965
S'K'
p2966
S'CIN'
p2967
(lp2968
I0
aI9
aI6
aI7
aI8
aI0
aI2
aI6
aI0
aI2
aI2
aI12
aI8
aI1
aI1
aI16
atp2969
sS'00-0022803'
p2970
(S'E.Manning'
p2971
S'QB'
p2972
S'NYG'
p2973
(lp2974
F6.700000000000001
aF13.56
aF28.64
aF31.72
aF17.0
aF11.120000000000001
aF9.36
aI0
aF16.8
aF20.92
aF8.7
aF2.420000000000001
aI0
aF11.120000000000001
aF33.36
aF5.02
atp2975
sS'00-0032371'
p2976
(S'R.Kelley'
p2977
S'RB'
p2978
S'WAS'
p2979
(lp2980
F3.0
aF7.800000000000001
aI0
aF2.3000000000000003
aI0
aI0
aF3.0
aF7.9
aF15.4
aF1.4
aI0
aI0
aI0
aI0
aI0
aI0
atp2981
sS'00-0029634'
p2982
(S'J.Hanna'
p2983
S'TE'
p2984
S'DAL'
p2985
(lp2986
I0
aI0
aI0
aF8.8
aI0
aI0
aI0
aI0
aI0
aI0
aI0
aI0
aI0
aF1.6
aF3.1
aI0
atp2987
sS'00-0029632'
p2988
(S'M.Sanu'
p2989
S'WR'
p2990
S'ATL'
p2991
(lp2992
F4.7
aF8.5
aF8.8
aF0.7000000000000001
aI0
aI0
aF6.5
aF13.4
aF8.3
aF2.9000000000000004
aF9.7
aF14.44
aF4.3
aF14.3
aF2.6000000000000005
aF3.1
atp2993
sS'00-0033060'
p2994
(S'L.Carroo'
p2995
S'WR'
p2996
S'MIA'
p2997
(lp2998
I0
aI0
aI0
aI0
aI0
aI0
aF2.1
aF4.800000000000001
aI0
aI0
aI0
aI0
aI0
aI0
aI0
aI0
atp2999
sS'00-0026176'
p3000
(S'J.Nelson'
p3001
S'WR'
p3002
S'GB'
p3003
(lp3004
F13.9
aI0
aF17.2
aF19.5
aF8.4
aF6.0
aF1.3
aI0
aF3.5
aF2.0
aF2.4000000000000004
aF1.1
aF1.7000000000000002
aF3.3000000000000003
aF2.8000000000000003
aF1.1
atp3005
sS'00-0030780'
p3006
(S'R.Hewitt'
p3007
S'TE'
p3008
S'CIN'
p3009
(lp3010
I0
aI0
aI0
aF1.6
aI0
aI0
aI0
aI0
aI0
aI0
aI0
aI0
aI0
aF0.6000000000000001
aI0
aI0
atp3011
sS'00-0033581'
p3012
(S'D.Henderson'
p3013
S'RB'
p3014
S'DEN'
p3015
(lp3016
I0
aI0
aF0.1
aI0
aI0
aI0
aI0
aI0
aI0
aI0
aI0
aI0
aI0
aI0
aI0
aF0.4
atp3017
sS'00-0032117'
p3018
(S"N.O'Leary"
p3019
S'TE'
p3020
S'BUF'
p3021
(lp3022
F2.2
aI0
aF3.1
aI0
aF5.4
aI0
aF5.800000000000001
aF0.5
aF3.1000000000000005
aF6.7
aF0.8
aF1.8
aI0
aF0.9
aF3.3000000000000003
aI0
atp3023
sS'00-0031418'
p3024
(S'A.Seferian-Jenkins'
p3025
S'TE'
p3026
S'NYJ'
p3027
(lp3028
I0
aI0
aF3.1
aF4.6000000000000005
aF8.9
aF8.600000000000001
aF8.1
aF2.8000000000000003
aF2.0
aF6.7
aI0
aF2.7
aF0.7000000000000001
aF0.1
aF1.3
aF2.1
atp3029
sS'00-0030147'
p3030
(S'R.Shepard'
p3031
S'WR'
p3032
S'CAR'
p3033
(lp3034
F11.3
aF0.6000000000000001
aI0
aF1.3
aF1.5
aF4.4
aF2.0
aF4.7
aF1.1
aF4.0
aI0
aI0
aF2.9000000000000004
aF0.8
aI0
aI0
atp3035
sS'00-0033077'
p3036
(S'D.Prescott'
p3037
S'QB'
p3038
S'DAL'
p3039
(lp3040
F19.12
aF19.92
aF26.92
aF28.58
aF35.739999999999995
aI0
aF35.96
aF7.32
aF30.66
aF13.239999999999998
aF-1.2000000000000002
aF3.16
aF18.880000000000003
aF32.58
aF13.68
aF5.380000000000001
atp3041
sS'00-0028237'
p3042
(S'C.Hogan'
p3043
S'WR'
p3044
S'NE'
p3045
(lp3046
F2.5
aF13.8
aF18.8
aF12.0
aF13.4
aF1.9000000000000001
aF7.1000000000000005
aF6.0
aI0
aI0
aI0
aI0
aI0
aF0.1
aI0
aI0
atp3047
sS'00-0032431'
p3048
(S'J.Rudock'
p3049
S'QB'
p3050
S'DET'
p3051
(lp3052
I0
aI0
aI0
aI0
aI0
aI0
aI0
aI0
aI0
aI0
aI0
aI0
aF-1.04
aI0
aI0
aI0
atp3053
sS'00-0032430'
p3054
(S'D.Morgan'
p3055
S'TE'
p3056
S'MIN'
p3057
(lp3058
I0
aI0
aI0
aI0
aI0
aI0
aI0
aF2.8000000000000003
aI0
aF6.1
aF0.5
aI0
aI0
aI0
aI0
aF2.6
atp3059
sS'00-0033079'
p3060
(S'R.Louis'
p3061
S'WR'
p3062
S'CLE'
p3063
(lp3064
F3.2
aF2.7
aF1.0
aF6.4
aF7.1000000000000005
aF2.5
aF2.1
aF4.2
aI0
aF1.5
aF1.5
aI0
aI0
aI0
aI0
aF3.5
atp3065
sS'00-0032404'
p3066
(S'T.Ervin'
p3067
S'RB'
p3068
S'HOU'
p3069
(lp3070
F7.1
aF4.800000000000001
aF8.0
aF0.4
aI0
aI0
aI0
aI0
aI0
aI0
aI0
aI0
aI0
aI0
aI0
aI0
atp3071
sS'00-0032208'
p3072
(S'P.Dorsett'
p3073
S'WR'
p3074
S'NE'
p3075
(lp3076
I0
aF7.500000000000001
aI0
aF1.7000000000000002
aI0
aI0
aI0
aI0
aI0
aF1.6
aI0
aF3.9000000000000004
aI0
aI0
aF0.4
aF2.4000000000000004
atp3077
sS'00-0032128'
p3078
(S'C.Conley'
p3079
S'WR'
p3080
S'KC'
p3081
(lp3082
F4.3
aF5.5
aI0
aF3.1
aF5.4
aI0
aI0
aI0
aI0
aI0
aI0
aI0
aI0
aI0
aI0
aI0
atp3083
sS'00-0032200'
p3084
(S'T.Montgomery'
p3085
S'RB'
p3086
S'GB'
p3087
(lp3088
F15.3
aF23.0
aF5.0
aF2.8000000000000003
aI0
aF3.1000000000000005
aF1.5
aI0
aF5.1000000000000005
aF12.8
aI0
aI0
aI0
aI0
aI0
aI0
atp3089
sS'00-0004091'
p3090
(S'P.Dawson'
p3091
S'K'
p3092
S'ARI'
p3093
(lp3094
I5
aI10
aI5
aI14
aI1
aI8
aI0
aI0
aI8
aI4
aI3
aI15
aI6
aI12
aI15
aI5
atp3095
sS'00-0032804'
p3096
(S'D.Lasco'
p3097
S'RB'
p3098
S'NO'
p3099
(lp3100
I0
aI0
aI0
aI0
aI0
aI0
aI0
aI0
aI0
aI0
aI0
aI0
aI0
aI0
aI0
aI0
atp3101
sS'00-0031055'
p3102
(S'A.Williams'
p3103
S'RB'
p3104
S'LAC'
p3105
(lp3106
I0
aI0
aI0
aI0
aI0
aI0
aI0
aI0
aI0
aI0
aF0.2
aI0
aI0
aF2.3000000000000003
aI0
aI0
atp3107
sS'00-0031001'
p3108
(S'J.Janis'
p3109
S'WR'
p3110
S'GB'
p3111
(lp3112
I0
aI0
aI0
aI0
aF1.7000000000000002
aF1.1
aI0
aI0
aI0
aI0
aI0
aI0
aI0
aI0
aI0
aF2.7
atp3113
sS'00-0028787'
p3114
(S'K.Forbath'
p3115
S'K'
p3116
S'MIN'
p3117
(lp3118
I11
aI3
aI10
aI1
aI8
aI13
aI22
aI15
aI0
aI10
aI6
aI6
aI2
aI10
aI12
aI10
atp3119
sS'00-0032616'
p3120
(S'M.Koehn'
p3121
S'K'
p3122
S'CIN'
p3123
(lp3124
I0
aI0
aI0
aI0
aI0
aI0
aI0
aI0
aI1
aI0
aI0
aI0
aI0
aI0
aI0
aI0
atp3125
sS'00-0031570'
p3126
(S'J.Hardy'
p3127
S'WR'
p3128
S'ATL'
p3129
(lp3130
I0
aF1.9000000000000001
aI0
aF7.2
aI0
aF3.4000000000000004
aF2.1
aI0
aF2.6
aF6.7
aF2.7
aI0
aI0
aI0
aF9.3
aF1.0
atp3131
sS'00-0032120'
p3132
(S'N.Sterling'
p3133
S'TE'
p3134
S'NYJ'
p3135
(lp3136
I0
aF0.8
aI0
aI0
aI0
aI0
aI0
aI0
aI0
aI0
aI0
aI0
aI0
aI0
aI0
aI0
atp3137
sS'00-0031577'
p3138
(S'J.Allen'
p3139
S'RB'
p3140
S'BAL'
p3141
(lp3142
F7.1000000000000005
aF16.1
aF2.8
aF4.4
aF14.5
aF6.6000000000000005
aF4.9
aF5.7
aF12.5
aI0
aF1.7000000000000002
aF7.7
aF2.6
aF17.7
aF7.4
aF4.7
atp3143
sS'00-0027656'
p3144
(S'R.Gronkowski'
p3145
S'TE'
p3146
S'NE'
p3147
(lp3148
F3.3000000000000003
aF17.6
aF14.9
aF8.0
aI0
aF20.3
aF5.1000000000000005
aF11.7
aI0
aF7.4
aF3.6
aF20.200000000000003
aF14.700000000000001
aI0
aF18.8
aF12.7
atp3149
sS'00-0027654'
p3150
(S'A.Benn'
p3151
S'WR'
p3152
S'JAX'
p3153
(lp3154
F1.2000000000000002
aI0
aI0
aI0
aI0
aI0
aI0
aI0
aI0
aI0
aI0
aI0
aI0
aI0
aI0
aI0
atp3155
sS'00-0033921'
p3156
(S'C.Godwin'
p3157
S'WR'
p3158
S'TB'
p3159
(lp3160
I0
aI0
aF4.4
aI0
aF0.8
aF0.9
aF0.5
aF0.8
aF0.9
aF6.800000000000001
aI0
aF1.7000000000000002
aF2.4000000000000004
aF6.800000000000001
aF1.8
aF9.8
atp3161
sS'00-0027891'
p3162
(S'G.Tate'
p3163
S'WR'
p3164
S'DET'
p3165
(lp3166
F11.4
aF2.5
aF12.8
aF3.1000000000000005
aF4.800000000000001
aF15.600000000000001
aI0
aF6.6
aF11.3
aF15.700000000000001
aF3.2
aF3.3000000000000003
aF6.9
aF14.5
aF3.2
aF1.4000000000000001
atp3167
sS'00-0033748'
p3168
(S'T.Green'
p3169
S'RB'
p3170
S'DET'
p3171
(lp3172
I0
aI0
aI0
aI0
aI0
aI0
aI0
aI0
aI0
aI0
aI0
aI0
aF11.100000000000001
aF1.5
aF3.5
aF10.3
atp3173
sS'00-0032475'
p3174
(S'T.McEvoy'
p3175
S'WR'
p3176
S'SEA'
p3177
(lp3178
I0
aI0
aI0
aI0
aF-2.0
aI0
aI0
aF5.300000000000001
aF1.0
aI0
aI0
aF3.1
aI0
aI0
aF-0.09999999999999987
aI0
atp3179
sS'00-0031060'
p3180
(S'D.Thomas'
p3181
S'WR'
p3182
S'KC'
p3183
(lp3184
F9.100000000000001
aF4.9
aF1.4000000000000001
aF1.8
aF7.4
aF12.100000000000001
aF0.2
aI0
aF7.1000000000000005
aI0
aF5.800000000000001
aI0
aF6.300000000000001
aF2.0
aF0.6000000000000001
aI0
atp3185
sS'00-0027029'
p3186
(S'L.McCoy'
p3187
S'RB'
p3188
S'BUF'
p3189
(lp3190
F15.9
aF4.300000000000001
aF6.9
aF10.8
aF8.9
aI0
aF22.200000000000003
aF23.3
aF2.5
aF6.0
aF24.599999999999998
aF7.9
aF10.200000000000001
aF21.6
aF21.700000000000003
aF14.700000000000001
atp3191
sS'00-0029068'
p3192
(S'D.Coleman'
p3193
S'RB'
p3194
S'ATL'
p3195
(lp3196
I0
aI0
aI0
aF1.1
aI0
aI0
aI0
aI0
aF0.9
aF0.8
aI0
aI0
aI0
aI0
aI0
aI0
atp3197
sS'00-0033293'
p3198
(S'A.Jones'
p3199
S'RB'
p3200
S'GB'
p3201
(lp3202
I0
aI0
aI0
aF10.9
aF19.4
aF4.2
aF19.8
aI0
aF1.1
aF1.2000000000000002
aI0
aI0
aF8.0
aF-0.2
aF5.300000000000001
aF1.3
atp3203
sS'00-0033384'
p3204
(S'L.Daniels'
p3205
S'RB'
p3206
S'WAS'
p3207
(lp3208
I0
aI0
aI0
aI0
aI0
aI0
aI0
aI0
aI0
aI0
aI0
aI0
aI0
aF1.2000000000000002
aF0.2
aI0
atp3209
sS'00-0033958'
p3210
(S'N.Peterman'
p3211
S'QB'
p3212
S'BUF'
p3213
(lp3214
I0
aI0
aI0
aI0
aI0
aI0
aI0
aI0
aI0
aF9.16
aF-6.96
aI0
aF2.9
aF9.280000000000001
aI0
aI0
atp3215
sS'00-0033387'
p3216
(S'J.Hollister'
p3217
S'TE'
p3218
S'NE'
p3219
(lp3220
I0
aF0.5
aF1.9000000000000001
aI0
aI0
aI0
aI0
aF1.3
aI0
aI0
aI0
aI0
aI0
aI0
aI0
aF1.0
atp3221
sS'00-0031136'
p3222
(S'C.Boswell'
p3223
S'K'
p3224
S'PIT'
p3225
(lp3226
I3
aI14
aI5
aI8
aI9
aI5
aI17
aI8
aI0
aI6
aI18
aI7
aI11
aI17
aI8
aI10
atp3227
sS'00-0033951'
p3228
(S'M.Mack'
p3229
S'RB'
p3230
S'IND'
p3231
(lp3232
F10.5
aF0.8
aI0
aI0
aF15.299999999999999
aF1.8
aF6.6
aF15.799999999999999
aF2.9000000000000004
aF2.6
aI0
aF3.1
aF5.4
aF4.4
aF1.4000000000000001
aF8.8
atp3233
sS'00-0033950'
p3234
(S'W.Gallman'
p3235
S'RB'
p3236
S'NYG'
p3237
(lp3238
I0
aI0
aI0
aF11.0
aF8.2
aF3.2
aF2.9000000000000004
aI0
aF2.1000000000000005
aF2.2
aF2.2
aF4.300000000000001
aF1.9000000000000001
aF9.9
aF7.9
aF6.2
atp3239
sS'00-0028497'
p3240
(S'K.Aiken'
p3241
S'WR'
p3242
S'IND'
p3243
(lp3244
F0.30000000000000004
aF3.1
aF0.9
aF0.4
aF2.2
aF2.1
aF0.8
aF3.3000000000000003
aI0
aI0
aI0
aI0
aI0
aI0
aI0
aI0
atp3245
sS'00-0033955'
p3246
(S'J.McNichols'
p3247
S'RB'
p3248
S'SF'
p3249
(lp3250
I0
aI0
aI0
aI0
aI0
aI0
aI0
aI0
aI0
aI0
aI0
aI0
aI0
aI0
aI0
aI0
atp3251
sS'00-0030656'
p3252
(S'I.Crowell'
p3253
S'RB'
p3254
S'CLE'
p3255
(lp3256
F8.600000000000001
aF3.7
aF5.4
aF2.7
aF6.7
aF7.300000000000001
aF7.1
aF15.8
aI0
aF15.5
aF1.8
aF10.5
aF4.4
aF13.100000000000001
aF6.5
aF4.300000000000001
atp3257
sS'00-0033591'
p3258
(S'N.Brown'
p3259
S'WR'
p3260
S'DAL'
p3261
(lp3262
I0
aI0
aF1.3
aI0
aI0
aI0
aI0
aI0
aI0
aI0
aF1.4000000000000001
aI0
aF-0.2
aI0
aF0.8
aI0
atp3263
sS'00-0033594'
p3264
(S'C.Carson'
p3265
S'RB'
p3266
S'SEA'
p3267
(lp3268
F4.9
aF10.0
aF11.200000000000001
aF6.6000000000000005
aI0
aI0
aI0
aI0
aI0
aI0
aI0
aI0
aI0
aI0
aI0
aI0
atp3269
sS'00-0033596'
p3270
(S'M.Dayes'
p3271
S'RB'
p3272
S'CLE'
p3273
(lp3274
F1.6
aI0
aI0
aF0.2
aI0
aI0
aF3.0
aF12.0
aI0
aF2.2
aF6.7
aF10.3
aF5.1000000000000005
aF2.4000000000000004
aI0
aF2.1
atp3275
sS'00-0016919'
p3276
(S'A.Vinatieri'
p3277
S'K'
p3278
S'IND'
p3279
(lp3280
I3
aI7
aI7
aI4
aI18
aI12
aI0
aI11
aI10
aI5
aI0
aI10
aI4
aI1
aI7
aI10
atp3281
sS'00-0033699'
p3282
(S'A.Ekeler'
p3283
S'RB'
p3284
S'LAC'
p3285
(lp3286
F1.8
aF4.9
aF0.6000000000000001
aF11.8
aF2.8000000000000003
aF0.9
aF10.4
aF5.7
aI0
aF21.9
aF11.8
aF7.0
aF4.0
aF4.9
aF-0.09999999999999987
aI0
atp3287
sS'00-0033315'
p3288
(S'C.Hikutini'
p3289
S'TE'
p3290
S'SF'
p3291
(lp3292
I0
aI0
aI0
aI0
aI0
aI0
aF0.5
aF1.0
aI0
aI0
aI0
aI0
aI0
aI0
aI0
aI0
atp3293
sS'00-0028011'
p3294
(S'S.Ridley'
p3295
S'RB'
p3296
S'PIT'
p3297
(lp3298
I0
aI0
aI0
aI0
aI0
aI0
aI0
aI0
aI0
aI0
aI0
aI0
aI0
aI0
aI0
aF2.8000000000000003
atp3299
sS'00-0028012'
p3300
(S'R.Mallett'
p3301
S'QB'
p3302
S'BAL'
p3303
(lp3304
I0
aI0
aF7.4399999999999995
aI0
aI0
aI0
aI0
aF6.5
aI0
aI0
aI0
aI0
aI0
aI0
aI0
aI0
atp3305
sS'00-0029604'
p3306
(S'K.Cousins'
p3307
S'QB'
p3308
S'WAS'
p3309
(lp3310
F12.6
aF13.86
aF32.8
aF24.6
aI0
aF31.800000000000004
aF29.92
aF12.52
aF8.280000000000001
aF29.58
aF31.98
aF20.08
aF16.64
aF10.84
aF19.84
aF28.76
atp3311
sS'00-0032577'
p3312
(S'D.Foster'
p3313
S'RB'
p3314
S'ARI'
p3315
(lp3316
I0
aI0
aI0
aI0
aI0
aI0
aI0
aI0
aI0
aI0
aF2.6
aF7.2
aF2.5
aF4.0
aF2.8000000000000003
aF2.4000000000000004
atp3317
sS'00-0032972'
p3318
(S'D.Booker'
p3319
S'RB'
p3320
S'DEN'
p3321
(lp3322
I0
aI0
aI0
aF1.4000000000000001
aI0
aF8.0
aF2.8000000000000003
aF11.4
aF13.600000000000001
aF13.600000000000001
aF9.8
aF4.7
aF0.8
aF3.4000000000000004
aF7.200000000000001
aF7.700000000000001
atp3323
sS'00-0030216'
p3324
(S'J.Hill'
p3325
S'TE'
p3326
S'NO'
p3327
(lp3328
I0
aF2.9000000000000004
aF0.30000000000000004
aI0
aI0
aI0
aI0
aF2.9000000000000004
aI0
aF-2.2
aF5.5
aI0
aF-1.2
aF1.4000000000000001
aF2.2
aF1.1
atp3329
sS'00-0029608'
p3330
(S'T.Hilton'
p3331
S'WR'
p3332
S'IND'
p3333
(lp3334
F3.7
aF4.9
aF21.3
aF3.0
aF17.7
aF1.9000000000000001
aF2.7
aF1.5
aF29.5
aF2.3000000000000003
aI0
aF1.5
aF11.100000000000001
aF2.0
aF4.1000000000000005
aF10.0
atp3335
sS'00-0032977'
p3336
(S'R.Higgins'
p3337
S'WR'
p3338
S'CLE'
p3339
(lp3340
I0
aF9.9
aF1.0
aI0
aF0.7000000000000001
aF1.3
aF1.1
aF1.4000000000000001
aI0
aF3.4000000000000004
aI0
aF3.0
aI0
aI0
aF1.0
aF0.0
atp3341
sS'00-0031035'
p3342
(S'X.Grimble'
p3343
S'TE'
p3344
S'PIT'
p3345
(lp3346
I0
aI0
aI0
aI0
aI0
aI0
aF1.2000000000000002
aI0
aI0
aI0
aI0
aF6.1
aF0.9
aI0
aF0.8
aF0.0
atp3347
sS'00-0033258'
p3348
(S'D.Daniels'
p3349
S'TE'
p3350
S'IND'
p3351
(lp3352
I0
aI0
aF0.6000000000000001
aI0
aF1.3
aI0
aF0.7000000000000001
aI0
aI0
aI0
aI0
aI0
aI0
aI0
aI0
aI0
atp3353
sS'00-0033295'
p3354
(S'E.McGuire'
p3355
S'RB'
p3356
S'NYJ'
p3357
(lp3358
I0
aF3.6000000000000005
aF1.4000000000000004
aF19.1
aF3.0
aF2.2
aF0.7000000000000001
aF6.9
aF4.9
aF5.800000000000001
aI0
aF3.4000000000000004
aF4.0
aF-0.30000000000000004
aF13.200000000000001
aF-2.0
atp3359
sS'00-0031189'
p3360
(S'T.Jones'
p3361
S'WR'
p3362
S'DET'
p3363
(lp3364
F3.2
aI0
aF6.300000000000001
aF5.300000000000001
aF1.2000000000000002
aF3.3000000000000003
aI0
aF8.8
aF2.9000000000000004
aF0.2
aF5.5
aF5.2
aF1.4000000000000001
aF11.2
aF8.6
aI0
atp3365
sS'00-0030422'
p3366
(S'D.Sims'
p3367
S'TE'
p3368
S'CHI'
p3369
(lp3370
F3.1
aI0
aI0
aF0.8
aF1.7000000000000002
aF10.2
aI0
aF1.5
aI0
aI0
aI0
aF-0.30000000000000004
aF0.5
aF3.2
aF0.9
aF2.4000000000000004
atp3371
sS'00-0020578'
p3372
(S'M.Bryant'
p3373
S'K'
p3374
S'ATL'
p3375
(lp3376
I11
aI14
aI12
aI5
aI0
aI7
aI1
aI13
aI7
aI11
aI10
aI10
aI9
aI10
aI8
aI7
atp3377
sS'00-0031228'
p3378
(S'T.Gabriel'
p3379
S'WR'
p3380
S'ATL'
p3381
(lp3382
F3.6
aF2.1
aF13.9
aI0
aI0
aF3.9000000000000004
aF1.9000000000000004
aF-0.30000000000000004
aF5.9
aF7.300000000000001
aF0.7000000000000001
aF1.6
aF1.1
aF1.9
aF1.9000000000000001
aF3.2
atp3383
sS'00-0031951'
p3384
(S"J.O'Shaughnessy"
p3385
S'TE'
p3386
S'JAX'
p3387
(lp3388
F1.8
aI0
aF1.2000000000000002
aI0
aI0
aF1.1
aI0
aI0
aF0.6000000000000001
aI0
aF1.2000000000000002
aF0.7000000000000001
aF2.9000000000000004
aI0
aF1.5
aF9.9
atp3389
sS'00-0027973'
p3390
(S'A.Dalton'
p3391
S'QB'
p3392
S'CIN'
p3393
(lp3394
F-3.0
aF9.46
aF20.28
aF36.339999999999996
aF15.32
aI0
aF14.399999999999999
aF22.72
aF5.340000000000001
aF18.6
aF24.560000000000002
aF23.16
aF23.259999999999998
aF9.64
aF0.5200000000000005
aF13.42
atp3395
sS'00-0029263'
p3396
(S'R.Wilson'
p3397
S'QB'
p3398
S'SEA'
p3399
(lp3400
F8.32
aF17.32
aF41.519999999999996
aF31.6
aF13.52
aI0
aF32.36
aF43.08
aF27.580000000000002
aF23.42
aF34.92
aF27.62
aF30.18
aF27.840000000000003
aF13.58
aF18.62
atp3401
sS'00-0033528'
p3402
(S'J.Sprinkle'
p3403
S'TE'
p3404
S'WAS'
p3405
(lp3406
I0
aI0
aI0
aI0
aI0
aI0
aI0
aI0
aI0
aI0
aF6.7
aI0
aI0
aI0
aI0
aF0.6000000000000001
atp3407
sS'00-0029269'
p3408
(S'T.Benjamin'
p3409
S'WR'
p3410
S'LAC'
p3411
(lp3412
F10.0
aF3.4000000000000004
aF12.6
aF2.4000000000000004
aF6.7
aF0.6000000000000001
aF25.4
aF13.0
aI0
aF2.3
aF2.8000000000000003
aF5.6
aF7.700000000000001
aF9.200000000000001
aF2.0000000000000004
aF2.5000000000000004
atp3413
sS'00-0031793'
p3414
(S'T.Watson'
p3415
S'RB'
p3416
S'PIT'
p3417
(lp3418
I0
aF2.6
aF2.7
aF3.7
aI0
aF0.30000000000000004
aF1.6
aI0
aI0
aF1.8
aF2.1
aI0
aI0
aI0
aI0
aI0
atp3419
sS'00-0029119'
p3420
(S'D.Carrier'
p3421
S'TE'
p3422
S'LA'
p3423
(lp3424
F1.2000000000000002
aF0.9
aF1.7000000000000002
aI0
aI0
aI0
aI0
aI0
aF0.5
aI0
aI0
aI0
aF1.4000000000000001
aF2.8000000000000003
aF0.4
aI0
atp3425
sS'00-0026138'
p3426
(S'C.Barth'
p3427
S'K'
p3428
S'CHI'
p3429
(lp3430
I7
aI1
aI5
aI2
aI1
aI9
aI5
aI6
aI0
aI10
aI6
aI0
aI0
aI0
aI0
aI0
atp3431
sS'00-0030108'
p3432
(S'R.Griffin'
p3433
S'TE'
p3434
S'HOU'
p3435
(lp3436
I0
aI0
aF12.100000000000001
aF1.3
aF2.2
aF7.2
aI0
aF1.0
aI0
aI0
aI0
aI0
aI0
aI0
aI0
aI0
atp3437
sS'00-0030107'
p3438
(S'T.Riddick'
p3439
S'RB'
p3440
S'DET'
p3441
(lp3442
F8.600000000000001
aF3.7
aF3.8000000000000003
aF1.2000000000000002
aF5.3
aF5.3
aI0
aF4.5
aF7.300000000000001
aF10.7
aF3.9
aF3.0
aF12.2
aF21.3
aF4.1000000000000005
aF3.9000000000000004
atp3443
sS'00-0033138'
p3444
(S'S.Ficken'
p3445
S'K'
p3446
S'LA'
p3447
(lp3448
I0
aI0
aI0
aI0
aI0
aI0
aI0
aI0
aI0
aI0
aI0
aI0
aI0
aI0
aI0
aI3
atp3449
sS'00-0031359'
p3450
(S'K.Benjamin'
p3451
S'WR'
p3452
S'CAR'
p3453
(lp3454
F2.5
aF7.7
aF0.8
aF10.4
aF11.8
aF9.9
aF6.5
aF9.9
aI0
aF4.2
aF2.0
aI0
aI0
aF9.8
aF2.0
aF7.0
atp3455
sS'00-0032472'
p3456
(S'T.Madden'
p3457
S'RB'
p3458
S'SEA'
p3459
(lp3460
I0
aI0
aI0
aI0
aI0
aI0
aF-0.1
aF6.6000000000000005
aI0
aI0
aI0
aI0
aI0
aI0
aI0
aI0
atp3461
sS'00-0032775'
p3462
(S'D.Robinson'
p3463
S'WR'
p3464
S'KC'
p3465
(lp3466
I0
aI0
aF0.9
aI0
aF1.6
aF1.6
aF6.9
aF0.5
aF1.8
aI0
aF0.7000000000000001
aF2.4000000000000004
aF1.7000000000000002
aI0
aI0
aI0
atp3467
sS'00-0027531'
p3468
(S'C.Ivory'
p3469
S'RB'
p3470
S'JAX'
p3471
(lp3472
F5.300000000000001
aF4.800000000000001
aF4.2
aF4.4
aF4.1000000000000005
aF13.7
aF8.7
aI0
aF10.3
aF-0.4
aF0.6000000000000001
aF-2.6
aF1.5000000000000002
aF4.800000000000001
aF4.2
aI0
atp3473
sS'00-0032245'
p3474
(S'S.Mannion'
p3475
S'QB'
p3476
S'LA'
p3477
(lp3478
F-0.22000000000000008
aI0
aI0
aI0
aI0
aI0
aF-0.1
aI0
aF-0.1
aI0
aI0
aI0
aI0
aI0
aF0.4600000000000001
aI0
atp3479
sS'00-0032241'
p3480
(S'T.Gurley'
p3481
S'RB'
p3482
S'LA'
p3483
(lp3484
F15.600000000000001
aF23.6
aF32.9
aF27.5
aF3.0
aF12.000000000000002
aF21.400000000000002
aI0
aF22.4
aF13.600000000000001
aF11.6
aF12.8
aF15.8
aF25.5
aF42.0
aF39.6
atp3485
sS'00-0031595'
p3486
(S'M.Burton'
p3487
S'RB'
p3488
S'CHI'
p3489
(lp3490
F0.7000000000000001
aI0
aI0
aI0
aI0
aF0.8
aI0
aI0
aI0
aI0
aI0
aI0
aI0
aF0.0
aF0.2
aI0
atp3491
sS'00-0032940'
p3492
(S'D.Washington'
p3493
S'RB'
p3494
S'OAK'
p3495
(lp3496
F2.2
aF3.5
aF2.4000000000000004
aF0.4
aI0
aF0.19999999999999996
aF10.0
aF12.8
aF1.4000000000000001
aI0
aF3.5000000000000004
aF4.6000000000000005
aF10.5
aF1.9
aF1.9000000000000001
aF4.000000000000001
atp3497
s.